
build/arm11.elf:     file format elf32-littlearm


Disassembly of section .text:

1ff80000 <pre_mmu_ivt>:
1ff80000:	e59ff018 	ldr	pc, [pc, #24]	; 1ff80020 <_reset_handler>
1ff80004:	e59ff018 	ldr	pc, [pc, #24]	; 1ff80024 <_ud_handler>
1ff80008:	e59ff014 	ldr	pc, [pc, #20]	; 1ff80024 <_ud_handler>
1ff8000c:	e59ff014 	ldr	pc, [pc, #20]	; 1ff80028 <_prefetch>
1ff80010:	e59ff014 	ldr	pc, [pc, #20]	; 1ff8002c <_data>
1ff80014:	e59ff008 	ldr	pc, [pc, #8]	; 1ff80024 <_ud_handler>
1ff80018:	e59ff004 	ldr	pc, [pc, #4]	; 1ff80024 <_ud_handler>
1ff8001c:	e59ff000 	ldr	pc, [pc]	; 1ff80024 <_ud_handler>

1ff80020 <_reset_handler>:
1ff80020:	1ff80510 	svcne	0x00f80510

1ff80024 <_ud_handler>:
1ff80024:	1fffffa0 	svcne	0x00ffffa0

1ff80028 <_prefetch>:
1ff80028:	1fffffb8 	svcne	0x00ffffb8

1ff8002c <_data>:
1ff8002c:	1fffffd0 	svcne	0x00ffffd0

1ff80030 <install_arm11_vectors>:
1ff80030:	e59f0014 	ldr	r0, [pc, #20]	; 1ff8004c <install_arm11_vectors+0x1c>
1ff80034:	e51f103c 	ldr	r1, [pc, #-60]	; 1ff80000 <pre_mmu_ivt>
1ff80038:	e3a02006 	mov	r2, #6
1ff8003c:	e4801004 	str	r1, [r0], #4
1ff80040:	e2522001 	subs	r2, r2, #1
1ff80044:	1afffffc 	bne	1ff8003c <install_arm11_vectors+0xc>
1ff80048:	e12fff1e 	bx	lr
1ff8004c:	1fffffa0 	svcne	0x00ffffa0

1ff80050 <putc>:
1ff80050:	e92d4c70 	push	{r4, r5, r6, sl, fp, lr}
1ff80054:	e28db010 	add	fp, sp, #16
1ff80058:	e3a00e2d 	mov	r0, #720	; 0x2d0
1ff8005c:	e59f312c 	ldr	r3, [pc, #300]	; 1ff80190 <putc+0x140>
1ff80060:	e0010091 	mul	r1, r1, r0
1ff80064:	e59b0008 	ldr	r0, [fp, #8]
1ff80068:	e0822082 	add	r2, r2, r2, lsl #1
1ff8006c:	e0830180 	add	r0, r3, r0, lsl #3
1ff80070:	e3a03683 	mov	r3, #137363456	; 0x8300000
1ff80074:	e0411002 	sub	r1, r1, r2
1ff80078:	e3833201 	orr	r3, r3, #268435456	; 0x10000000
1ff8007c:	e0812003 	add	r2, r1, r3
1ff80080:	e2811041 	add	r1, r1, #65	; 0x41
1ff80084:	e59fc108 	ldr	ip, [pc, #264]	; 1ff80194 <putc+0x144>
1ff80088:	e2811c0b 	add	r1, r1, #2816	; 0xb00
1ff8008c:	e0813003 	add	r3, r1, r3
1ff80090:	e3a01000 	mov	r1, #0
1ff80094:	e3a0ed5a 	mov	lr, #5760	; 0x1680
1ff80098:	e3a040ff 	mov	r4, #255	; 0xff
1ff8009c:	ea000003 	b	1ff800b0 <putc+0x60>
1ff800a0:	e2411003 	sub	r1, r1, #3
1ff800a4:	e2800001 	add	r0, r0, #1
1ff800a8:	e3710018 	cmn	r1, #24
1ff800ac:	0a000036 	beq	1ff8018c <putc+0x13c>
1ff800b0:	e5d05000 	ldrb	r5, [r0]
1ff800b4:	e3150080 	tst	r5, #128	; 0x80
1ff800b8:	10826001 	addne	r6, r2, r1
1ff800bc:	15c642d2 	strbne	r4, [r6, #722]	; 0x2d2
1ff800c0:	15c642d1 	strbne	r4, [r6, #721]	; 0x2d1
1ff800c4:	15c642d0 	strbne	r4, [r6, #720]	; 0x2d0
1ff800c8:	e3150040 	tst	r5, #64	; 0x40
1ff800cc:	10826001 	addne	r6, r2, r1
1ff800d0:	15c645a2 	strbne	r4, [r6, #1442]	; 0x5a2
1ff800d4:	15c645a1 	strbne	r4, [r6, #1441]	; 0x5a1
1ff800d8:	15c645a0 	strbne	r4, [r6, #1440]	; 0x5a0
1ff800dc:	e3150020 	tst	r5, #32
1ff800e0:	1a00001a 	bne	1ff80150 <putc+0x100>
1ff800e4:	e3150010 	tst	r5, #16
1ff800e8:	1a00001f 	bne	1ff8016c <putc+0x11c>
1ff800ec:	e3150008 	tst	r5, #8
1ff800f0:	0a000004 	beq	1ff80108 <putc+0xb8>
1ff800f4:	e0826001 	add	r6, r2, r1
1ff800f8:	e5c64e10 	strb	r4, [r6, #3600]	; 0xe10
1ff800fc:	e0836001 	add	r6, r3, r1
1ff80100:	e5c642d1 	strb	r4, [r6, #721]	; 0x2d1
1ff80104:	e5c642d0 	strb	r4, [r6, #720]	; 0x2d0
1ff80108:	e3150004 	tst	r5, #4
1ff8010c:	10836001 	addne	r6, r3, r1
1ff80110:	15c645a1 	strbne	r4, [r6, #1441]	; 0x5a1
1ff80114:	15c645a0 	strbne	r4, [r6, #1440]	; 0x5a0
1ff80118:	15c6459f 	strbne	r4, [r6, #1439]	; 0x59f
1ff8011c:	e3150002 	tst	r5, #2
1ff80120:	10836001 	addne	r6, r3, r1
1ff80124:	15c64871 	strbne	r4, [r6, #2161]	; 0x871
1ff80128:	15c64870 	strbne	r4, [r6, #2160]	; 0x870
1ff8012c:	15c6486f 	strbne	r4, [r6, #2159]	; 0x86f
1ff80130:	e3150001 	tst	r5, #1
1ff80134:	0affffd9 	beq	1ff800a0 <putc+0x50>
1ff80138:	e0825001 	add	r5, r2, r1
1ff8013c:	e7c5400e 	strb	r4, [r5, lr]
1ff80140:	e0835001 	add	r5, r3, r1
1ff80144:	e5c54b41 	strb	r4, [r5, #2881]	; 0xb41
1ff80148:	e5c54b40 	strb	r4, [r5, #2880]	; 0xb40
1ff8014c:	eaffffd3 	b	1ff800a0 <putc+0x50>
1ff80150:	e0826001 	add	r6, r2, r1
1ff80154:	e5c64870 	strb	r4, [r6, #2160]	; 0x870
1ff80158:	e0836001 	add	r6, r3, r1
1ff8015c:	e7e6400c 	strb	r4, [r6, ip]!
1ff80160:	e5c64001 	strb	r4, [r6, #1]
1ff80164:	e3150010 	tst	r5, #16
1ff80168:	0affffdf 	beq	1ff800ec <putc+0x9c>
1ff8016c:	e0826001 	add	r6, r2, r1
1ff80170:	e5c64b40 	strb	r4, [r6, #2880]	; 0xb40
1ff80174:	e1a06003 	mov	r6, r3
1ff80178:	e7e64001 	strb	r4, [r6, r1]!
1ff8017c:	e5c64001 	strb	r4, [r6, #1]
1ff80180:	e3150008 	tst	r5, #8
1ff80184:	1affffda 	bne	1ff800f4 <putc+0xa4>
1ff80188:	eaffffde 	b	1ff80108 <putc+0xb8>
1ff8018c:	e8bd8c70 	pop	{r4, r5, r6, sl, fp, pc}
1ff80190:	1ff80fd0 	svcne	0x00f80fd0
1ff80194:	fffffd30 			; <UNDEFINED> instruction: 0xfffffd30

1ff80198 <deinit_displays>:
1ff80198:	e24dd00c 	sub	sp, sp, #12
1ff8019c:	e59f0034 	ldr	r0, [pc, #52]	; 1ff801d8 <deinit_displays+0x40>
1ff801a0:	e3a02000 	mov	r2, #0
1ff801a4:	e2801ea3 	add	r1, r0, #2608	; 0xa30
1ff801a8:	e58d1000 	str	r1, [sp]
1ff801ac:	e59d1000 	ldr	r1, [sp]
1ff801b0:	e5812000 	str	r2, [r1]
1ff801b4:	e2801e23 	add	r1, r0, #560	; 0x230
1ff801b8:	e58d1008 	str	r1, [sp, #8]
1ff801bc:	e59d1008 	ldr	r1, [sp, #8]
1ff801c0:	e5812000 	str	r2, [r1]
1ff801c4:	e58d0004 	str	r0, [sp, #4]
1ff801c8:	e59d0004 	ldr	r0, [sp, #4]
1ff801cc:	e5802000 	str	r2, [r0]
1ff801d0:	e28dd00c 	add	sp, sp, #12
1ff801d4:	e12fff1e 	bx	lr
1ff801d8:	10202014 	eorne	r2, r0, r4, lsl r0

1ff801dc <slab_init>:
1ff801dc:	e92d4ff0 	push	{r4, r5, r6, r7, r8, r9, sl, fp, lr}
1ff801e0:	e28db01c 	add	fp, sp, #28
1ff801e4:	e24dd004 	sub	sp, sp, #4
1ff801e8:	e59f00b8 	ldr	r0, [pc, #184]	; 1ff802a8 <slab_init+0xcc>
1ff801ec:	e3a0200c 	mov	r2, #12
1ff801f0:	e3a04202 	mov	r4, #536870912	; 0x20000000
1ff801f4:	e280500c 	add	r5, r0, #12
1ff801f8:	e3822b02 	orr	r2, r2, #2048	; 0x800
1ff801fc:	e3a0a000 	mov	sl, #0
1ff80200:	ea000004 	b	1ff80218 <slab_init+0x3c>
1ff80204:	e3a0200c 	mov	r2, #12
1ff80208:	e3822b02 	orr	r2, r2, #2048	; 0x800
1ff8020c:	e0855002 	add	r5, r5, r2
1ff80210:	e35a000a 	cmp	sl, #10
1ff80214:	0a00001e 	beq	1ff80294 <slab_init+0xb8>
1ff80218:	e1a0000a 	mov	r0, sl
1ff8021c:	e28aa001 	add	sl, sl, #1
1ff80220:	e0090290 	mul	r9, r0, r2
1ff80224:	e1a0000a 	mov	r0, sl
1ff80228:	eb000021 	bl	1ff802b4 <pow>
1ff8022c:	e1a07000 	mov	r7, r0
1ff80230:	e3a00b01 	mov	r0, #1024	; 0x400
1ff80234:	e1a01007 	mov	r1, r7
1ff80238:	eb0002cc 	bl	1ff80d70 <__udivsi3>
1ff8023c:	e59f8064 	ldr	r8, [pc, #100]	; 1ff802a8 <slab_init+0xcc>
1ff80240:	e1a06000 	mov	r6, r0
1ff80244:	e3a00000 	mov	r0, #0
1ff80248:	e1a01006 	mov	r1, r6
1ff8024c:	e7a87009 	str	r7, [r8, r9]!
1ff80250:	e1a02007 	mov	r2, r7
1ff80254:	e5c80008 	strb	r0, [r8, #8]
1ff80258:	e5880004 	str	r0, [r8, #4]
1ff8025c:	e59f0048 	ldr	r0, [pc, #72]	; 1ff802ac <slab_init+0xd0>
1ff80260:	eb000295 	bl	1ff80cbc <print>
1ff80264:	e3560001 	cmp	r6, #1
1ff80268:	baffffe5 	blt	1ff80204 <slab_init+0x28>
1ff8026c:	e5980000 	ldr	r0, [r8]
1ff80270:	e3a0200c 	mov	r2, #12
1ff80274:	e3a01000 	mov	r1, #0
1ff80278:	e3822b02 	orr	r2, r2, #2048	; 0x800
1ff8027c:	e7854101 	str	r4, [r5, r1, lsl #2]
1ff80280:	e2811001 	add	r1, r1, #1
1ff80284:	e0844000 	add	r4, r4, r0
1ff80288:	e1510006 	cmp	r1, r6
1ff8028c:	3afffffa 	bcc	1ff8027c <slab_init+0xa0>
1ff80290:	eaffffdd 	b	1ff8020c <slab_init+0x30>
1ff80294:	e59f0014 	ldr	r0, [pc, #20]	; 1ff802b0 <slab_init+0xd4>
1ff80298:	e284120e 	add	r1, r4, #-536870912	; 0xe0000000
1ff8029c:	e24bd01c 	sub	sp, fp, #28
1ff802a0:	e8bd4ff0 	pop	{r4, r5, r6, r7, r8, r9, sl, fp, lr}
1ff802a4:	ea000284 	b	1ff80cbc <print>
1ff802a8:	1ff81880 	svcne	0x00f81880
1ff802ac:	1ff817d9 	svcne	0x00f817d9
1ff802b0:	1ff817d0 	svcne	0x00f817d0

1ff802b4 <pow>:
1ff802b4:	e92d4c10 	push	{r4, sl, fp, lr}
1ff802b8:	e28db008 	add	fp, sp, #8
1ff802bc:	e3500000 	cmp	r0, #0
1ff802c0:	0a00000a 	beq	1ff802f0 <pow+0x3c>
1ff802c4:	e1a04000 	mov	r4, r0
1ff802c8:	e0800fa0 	add	r0, r0, r0, lsr #31
1ff802cc:	e1a000c0 	asr	r0, r0, #1
1ff802d0:	ebfffff7 	bl	1ff802b4 <pow>
1ff802d4:	e0000090 	mul	r0, r0, r0
1ff802d8:	e3140001 	tst	r4, #1
1ff802dc:	08bd8c10 	popeq	{r4, sl, fp, pc}
1ff802e0:	e3540001 	cmp	r4, #1
1ff802e4:	ba000003 	blt	1ff802f8 <pow+0x44>
1ff802e8:	e1a00080 	lsl	r0, r0, #1
1ff802ec:	e8bd8c10 	pop	{r4, sl, fp, pc}
1ff802f0:	e3a00001 	mov	r0, #1
1ff802f4:	e8bd8c10 	pop	{r4, sl, fp, pc}
1ff802f8:	e1a000a0 	lsr	r0, r0, #1
1ff802fc:	e8bd8c10 	pop	{r4, sl, fp, pc}

1ff80300 <slab_alloc>:
1ff80300:	e92d4830 	push	{r4, r5, fp, lr}
1ff80304:	e28db008 	add	fp, sp, #8
1ff80308:	e59f2160 	ldr	r2, [pc, #352]	; 1ff80470 <slab_alloc+0x170>
1ff8030c:	e3a03000 	mov	r3, #0
1ff80310:	e5921000 	ldr	r1, [r2]
1ff80314:	e1510000 	cmp	r1, r0
1ff80318:	0a000034 	beq	1ff803f0 <slab_alloc+0xf0>
1ff8031c:	e592180c 	ldr	r1, [r2, #2060]	; 0x80c
1ff80320:	e3a03001 	mov	r3, #1
1ff80324:	e1510000 	cmp	r1, r0
1ff80328:	0a000030 	beq	1ff803f0 <slab_alloc+0xf0>
1ff8032c:	e3a01018 	mov	r1, #24
1ff80330:	e3811a01 	orr	r1, r1, #4096	; 0x1000
1ff80334:	e3a03002 	mov	r3, #2
1ff80338:	e7921001 	ldr	r1, [r2, r1]
1ff8033c:	e1510000 	cmp	r1, r0
1ff80340:	0a00002a 	beq	1ff803f0 <slab_alloc+0xf0>
1ff80344:	e3a01024 	mov	r1, #36	; 0x24
1ff80348:	e3811b06 	orr	r1, r1, #6144	; 0x1800
1ff8034c:	e3a03003 	mov	r3, #3
1ff80350:	e7921001 	ldr	r1, [r2, r1]
1ff80354:	e1510000 	cmp	r1, r0
1ff80358:	0a000024 	beq	1ff803f0 <slab_alloc+0xf0>
1ff8035c:	e3a01030 	mov	r1, #48	; 0x30
1ff80360:	e3811a02 	orr	r1, r1, #8192	; 0x2000
1ff80364:	e3a03004 	mov	r3, #4
1ff80368:	e7921001 	ldr	r1, [r2, r1]
1ff8036c:	e1510000 	cmp	r1, r0
1ff80370:	0a00001e 	beq	1ff803f0 <slab_alloc+0xf0>
1ff80374:	e3a0103c 	mov	r1, #60	; 0x3c
1ff80378:	e3811b0a 	orr	r1, r1, #10240	; 0x2800
1ff8037c:	e3a03005 	mov	r3, #5
1ff80380:	e7921001 	ldr	r1, [r2, r1]
1ff80384:	e1510000 	cmp	r1, r0
1ff80388:	0a000018 	beq	1ff803f0 <slab_alloc+0xf0>
1ff8038c:	e3a01048 	mov	r1, #72	; 0x48
1ff80390:	e3811a03 	orr	r1, r1, #12288	; 0x3000
1ff80394:	e3a03006 	mov	r3, #6
1ff80398:	e7921001 	ldr	r1, [r2, r1]
1ff8039c:	e1510000 	cmp	r1, r0
1ff803a0:	0a000012 	beq	1ff803f0 <slab_alloc+0xf0>
1ff803a4:	e3a01054 	mov	r1, #84	; 0x54
1ff803a8:	e3811b0e 	orr	r1, r1, #14336	; 0x3800
1ff803ac:	e3a03007 	mov	r3, #7
1ff803b0:	e7921001 	ldr	r1, [r2, r1]
1ff803b4:	e1510000 	cmp	r1, r0
1ff803b8:	0a00000c 	beq	1ff803f0 <slab_alloc+0xf0>
1ff803bc:	e3a01060 	mov	r1, #96	; 0x60
1ff803c0:	e3811901 	orr	r1, r1, #16384	; 0x4000
1ff803c4:	e3a03008 	mov	r3, #8
1ff803c8:	e7921001 	ldr	r1, [r2, r1]
1ff803cc:	e1510000 	cmp	r1, r0
1ff803d0:	0a000006 	beq	1ff803f0 <slab_alloc+0xf0>
1ff803d4:	e3a0106c 	mov	r1, #108	; 0x6c
1ff803d8:	e3811b12 	orr	r1, r1, #18432	; 0x4800
1ff803dc:	e3a03009 	mov	r3, #9
1ff803e0:	e7925001 	ldr	r5, [r2, r1]
1ff803e4:	e3a01000 	mov	r1, #0
1ff803e8:	e1550000 	cmp	r5, r0
1ff803ec:	1a00001d 	bne	1ff80468 <slab_alloc+0x168>
1ff803f0:	e3a0000c 	mov	r0, #12
1ff803f4:	e3800b02 	orr	r0, r0, #2048	; 0x800
1ff803f8:	e1052083 	smlabb	r5, r3, r0, r2
1ff803fc:	e1a04005 	mov	r4, r5
1ff80400:	e5f40008 	ldrb	r0, [r4, #8]!
1ff80404:	e3500000 	cmp	r0, #0
1ff80408:	13a00000 	movne	r0, #0
1ff8040c:	18bd8830 	popne	{r4, r5, fp, pc}
1ff80410:	e2830001 	add	r0, r3, #1
1ff80414:	ebffffa6 	bl	1ff802b4 <pow>
1ff80418:	e1a01000 	mov	r1, r0
1ff8041c:	e3a00b01 	mov	r0, #1024	; 0x400
1ff80420:	eb000252 	bl	1ff80d70 <__udivsi3>
1ff80424:	e3500001 	cmp	r0, #1
1ff80428:	ba000007 	blt	1ff8044c <slab_alloc+0x14c>
1ff8042c:	e285300c 	add	r3, r5, #12
1ff80430:	e3a02000 	mov	r2, #0
1ff80434:	e7931102 	ldr	r1, [r3, r2, lsl #2]
1ff80438:	e3510000 	cmp	r1, #0
1ff8043c:	1a000006 	bne	1ff8045c <slab_alloc+0x15c>
1ff80440:	e2822001 	add	r2, r2, #1
1ff80444:	e1520000 	cmp	r2, r0
1ff80448:	3afffff9 	bcc	1ff80434 <slab_alloc+0x134>
1ff8044c:	e3a00001 	mov	r0, #1
1ff80450:	e5c40000 	strb	r0, [r4]
1ff80454:	e3a00000 	mov	r0, #0
1ff80458:	e8bd8830 	pop	{r4, r5, fp, pc}
1ff8045c:	e0850102 	add	r0, r5, r2, lsl #2
1ff80460:	e3a02000 	mov	r2, #0
1ff80464:	e580200c 	str	r2, [r0, #12]
1ff80468:	e1a00001 	mov	r0, r1
1ff8046c:	e8bd8830 	pop	{r4, r5, fp, pc}
1ff80470:	1ff81880 	svcne	0x00f81880

1ff80474 <slab_free>:
1ff80474:	e92d4bf0 	push	{r4, r5, r6, r7, r8, r9, fp, lr}
1ff80478:	e28db018 	add	fp, sp, #24
1ff8047c:	e3500000 	cmp	r0, #0
1ff80480:	0a000020 	beq	1ff80508 <slab_free+0x94>
1ff80484:	e1a05000 	mov	r5, r0
1ff80488:	e1a04001 	mov	r4, r1
1ff8048c:	e2110001 	ands	r0, r1, #1
1ff80490:	1a00001c 	bne	1ff80508 <slab_free+0x94>
1ff80494:	e59f8070 	ldr	r8, [pc, #112]	; 1ff8050c <slab_free+0x98>
1ff80498:	e3a0900c 	mov	r9, #12
1ff8049c:	e3a06000 	mov	r6, #0
1ff804a0:	e288700c 	add	r7, r8, #12
1ff804a4:	e3899b02 	orr	r9, r9, #2048	; 0x800
1ff804a8:	ea000003 	b	1ff804bc <slab_free+0x48>
1ff804ac:	e7875101 	str	r5, [r7, r1, lsl #2]
1ff804b0:	e0877009 	add	r7, r7, r9
1ff804b4:	e356000a 	cmp	r6, #10
1ff804b8:	0a000012 	beq	1ff80508 <slab_free+0x94>
1ff804bc:	e0000996 	mul	r0, r6, r9
1ff804c0:	e2866001 	add	r6, r6, #1
1ff804c4:	e7980000 	ldr	r0, [r8, r0]
1ff804c8:	e1500004 	cmp	r0, r4
1ff804cc:	1afffff7 	bne	1ff804b0 <slab_free+0x3c>
1ff804d0:	e1a00006 	mov	r0, r6
1ff804d4:	ebffff76 	bl	1ff802b4 <pow>
1ff804d8:	e1a01000 	mov	r1, r0
1ff804dc:	e3a00b01 	mov	r0, #1024	; 0x400
1ff804e0:	eb000222 	bl	1ff80d70 <__udivsi3>
1ff804e4:	e3500001 	cmp	r0, #1
1ff804e8:	ba000006 	blt	1ff80508 <slab_free+0x94>
1ff804ec:	e3a01000 	mov	r1, #0
1ff804f0:	e7972101 	ldr	r2, [r7, r1, lsl #2]
1ff804f4:	e3520000 	cmp	r2, #0
1ff804f8:	0affffeb 	beq	1ff804ac <slab_free+0x38>
1ff804fc:	e2811001 	add	r1, r1, #1
1ff80500:	e1510000 	cmp	r1, r0
1ff80504:	3afffff9 	bcc	1ff804f0 <slab_free+0x7c>
1ff80508:	e8bd8bf0 	pop	{r4, r5, r6, r7, r8, r9, fp, pc}
1ff8050c:	1ff81880 	svcne	0x00f81880

1ff80510 <_start>:
1ff80510:	e92d4800 	push	{fp, lr}
1ff80514:	e1a0b00d 	mov	fp, sp
1ff80518:	ebffff2f 	bl	1ff801dc <slab_init>
1ff8051c:	e59f0010 	ldr	r0, [pc, #16]	; 1ff80534 <_start+0x24>
1ff80520:	eb0001e5 	bl	1ff80cbc <print>
1ff80524:	e59f000c 	ldr	r0, [pc, #12]	; 1ff80538 <_start+0x28>
1ff80528:	e7f000f2 	udf	#2
1ff8052c:	eb0001e2 	bl	1ff80cbc <print>
1ff80530:	eafffffe 	b	1ff80530 <_start+0x20>
1ff80534:	1ff81837 	svcne	0x00f81837
1ff80538:	1ff81849 	svcne	0x00f81849

1ff8053c <itoc>:
1ff8053c:	e2800030 	add	r0, r0, #48	; 0x30
1ff80540:	e6ef0070 	uxtb	r0, r0
1ff80544:	e12fff1e 	bx	lr

1ff80548 <itoh>:
1ff80548:	e3a02057 	mov	r2, #87	; 0x57
1ff8054c:	e3510000 	cmp	r1, #0
1ff80550:	13a02037 	movne	r2, #55	; 0x37
1ff80554:	e0820000 	add	r0, r2, r0
1ff80558:	e6ef0070 	uxtb	r0, r0
1ff8055c:	e12fff1e 	bx	lr

1ff80560 <strrev>:
1ff80560:	e92d4c10 	push	{r4, sl, fp, lr}
1ff80564:	e28db008 	add	fp, sp, #8
1ff80568:	e5d03000 	ldrb	r3, [r0]
1ff8056c:	e3a0c000 	mov	ip, #0
1ff80570:	e3a02000 	mov	r2, #0
1ff80574:	e3530000 	cmp	r3, #0
1ff80578:	0a000020 	beq	1ff80600 <strrev+0xa0>
1ff8057c:	e3e02001 	mvn	r2, #1
1ff80580:	e0801002 	add	r1, r0, r2
1ff80584:	e2822001 	add	r2, r2, #1
1ff80588:	e5d11003 	ldrb	r1, [r1, #3]
1ff8058c:	e3510000 	cmp	r1, #0
1ff80590:	1afffffa 	bne	1ff80580 <strrev+0x20>
1ff80594:	e292e001 	adds	lr, r2, #1
1ff80598:	2a000012 	bcs	1ff805e8 <strrev+0x88>
1ff8059c:	e0801002 	add	r1, r0, r2
1ff805a0:	e35e0003 	cmp	lr, #3
1ff805a4:	e5d14001 	ldrb	r4, [r1, #1]
1ff805a8:	e5c04000 	strb	r4, [r0]
1ff805ac:	e5c13001 	strb	r3, [r1, #1]
1ff805b0:	3a000008 	bcc	1ff805d8 <strrev+0x78>
1ff805b4:	e3a03001 	mov	r3, #1
1ff805b8:	e7d01002 	ldrb	r1, [r0, r2]
1ff805bc:	e7d04003 	ldrb	r4, [r0, r3]
1ff805c0:	e7c01003 	strb	r1, [r0, r3]
1ff805c4:	e7c04002 	strb	r4, [r0, r2]
1ff805c8:	e2422001 	sub	r2, r2, #1
1ff805cc:	e2833001 	add	r3, r3, #1
1ff805d0:	e1530002 	cmp	r3, r2
1ff805d4:	bafffff7 	blt	1ff805b8 <strrev+0x58>
1ff805d8:	e5d01000 	ldrb	r1, [r0]
1ff805dc:	e3a02000 	mov	r2, #0
1ff805e0:	e3510000 	cmp	r1, #0
1ff805e4:	0a000005 	beq	1ff80600 <strrev+0xa0>
1ff805e8:	e2803001 	add	r3, r0, #1
1ff805ec:	e3a02000 	mov	r2, #0
1ff805f0:	e7d31002 	ldrb	r1, [r3, r2]
1ff805f4:	e2822001 	add	r2, r2, #1
1ff805f8:	e3510000 	cmp	r1, #0
1ff805fc:	1afffffb 	bne	1ff805f0 <strrev+0x90>
1ff80600:	e7c0c002 	strb	ip, [r0, r2]
1ff80604:	e8bd8c10 	pop	{r4, sl, fp, pc}

1ff80608 <itoa>:
1ff80608:	e92d4df0 	push	{r4, r5, r6, r7, r8, sl, fp, lr}
1ff8060c:	e28db018 	add	fp, sp, #24
1ff80610:	e1a08001 	mov	r8, r1
1ff80614:	e3a07000 	mov	r7, #0
1ff80618:	e3a01000 	mov	r1, #0
1ff8061c:	e3500000 	cmp	r0, #0
1ff80620:	0a000013 	beq	1ff80674 <itoa+0x6c>
1ff80624:	e1a05002 	mov	r5, r2
1ff80628:	e1a06000 	mov	r6, r0
1ff8062c:	e3a04000 	mov	r4, #0
1ff80630:	e1a00006 	mov	r0, r6
1ff80634:	e1a01005 	mov	r1, r5
1ff80638:	eb000211 	bl	1ff80e84 <__divsi3>
1ff8063c:	e0010590 	mul	r1, r0, r5
1ff80640:	e3a02030 	mov	r2, #48	; 0x30
1ff80644:	e0461001 	sub	r1, r6, r1
1ff80648:	e3510009 	cmp	r1, #9
1ff8064c:	c3a02037 	movgt	r2, #55	; 0x37
1ff80650:	e0821001 	add	r1, r2, r1
1ff80654:	e7c81004 	strb	r1, [r8, r4]
1ff80658:	e2841001 	add	r1, r4, #1
1ff8065c:	e3500000 	cmp	r0, #0
1ff80660:	0a000003 	beq	1ff80674 <itoa+0x6c>
1ff80664:	e3540012 	cmp	r4, #18
1ff80668:	e1a04001 	mov	r4, r1
1ff8066c:	e1a06000 	mov	r6, r0
1ff80670:	3affffee 	bcc	1ff80630 <itoa+0x28>
1ff80674:	e7c87001 	strb	r7, [r8, r1]
1ff80678:	e5d81000 	ldrb	r1, [r8]
1ff8067c:	e3510000 	cmp	r1, #0
1ff80680:	0a00001f 	beq	1ff80704 <itoa+0xfc>
1ff80684:	e3e00001 	mvn	r0, #1
1ff80688:	e0882000 	add	r2, r8, r0
1ff8068c:	e2800001 	add	r0, r0, #1
1ff80690:	e5d22003 	ldrb	r2, [r2, #3]
1ff80694:	e3520000 	cmp	r2, #0
1ff80698:	1afffffa 	bne	1ff80688 <itoa+0x80>
1ff8069c:	e2902001 	adds	r2, r0, #1
1ff806a0:	2a000011 	bcs	1ff806ec <itoa+0xe4>
1ff806a4:	e0883000 	add	r3, r8, r0
1ff806a8:	e3520003 	cmp	r2, #3
1ff806ac:	e5d36001 	ldrb	r6, [r3, #1]
1ff806b0:	e5c86000 	strb	r6, [r8]
1ff806b4:	e5c31001 	strb	r1, [r3, #1]
1ff806b8:	3a000008 	bcc	1ff806e0 <itoa+0xd8>
1ff806bc:	e3a01001 	mov	r1, #1
1ff806c0:	e7d82000 	ldrb	r2, [r8, r0]
1ff806c4:	e7d83001 	ldrb	r3, [r8, r1]
1ff806c8:	e7c82001 	strb	r2, [r8, r1]
1ff806cc:	e7c83000 	strb	r3, [r8, r0]
1ff806d0:	e2400001 	sub	r0, r0, #1
1ff806d4:	e2811001 	add	r1, r1, #1
1ff806d8:	e1510000 	cmp	r1, r0
1ff806dc:	bafffff7 	blt	1ff806c0 <itoa+0xb8>
1ff806e0:	e5d80000 	ldrb	r0, [r8]
1ff806e4:	e3500000 	cmp	r0, #0
1ff806e8:	0a000005 	beq	1ff80704 <itoa+0xfc>
1ff806ec:	e2880001 	add	r0, r8, #1
1ff806f0:	e3a07000 	mov	r7, #0
1ff806f4:	e7d01007 	ldrb	r1, [r0, r7]
1ff806f8:	e2877001 	add	r7, r7, #1
1ff806fc:	e3510000 	cmp	r1, #0
1ff80700:	1afffffb 	bne	1ff806f4 <itoa+0xec>
1ff80704:	e3a00000 	mov	r0, #0
1ff80708:	e7c80007 	strb	r0, [r8, r7]
1ff8070c:	e8bd8df0 	pop	{r4, r5, r6, r7, r8, sl, fp, pc}

1ff80710 <vsnprintf>:
1ff80710:	e92d4ff0 	push	{r4, r5, r6, r7, r8, r9, sl, fp, lr}
1ff80714:	e28db01c 	add	fp, sp, #28
1ff80718:	e24dd01c 	sub	sp, sp, #28
1ff8071c:	e3510001 	cmp	r1, #1
1ff80720:	ba00015e 	blt	1ff80ca0 <vsnprintf+0x590>
1ff80724:	e28d9008 	add	r9, sp, #8
1ff80728:	e1a0e003 	mov	lr, r3
1ff8072c:	e2895001 	add	r5, r9, #1
1ff80730:	e3a0c000 	mov	ip, #0
1ff80734:	e3a07000 	mov	r7, #0
1ff80738:	e58d1004 	str	r1, [sp, #4]
1ff8073c:	ea000005 	b	1ff80758 <vsnprintf+0x48>
1ff80740:	e59d1004 	ldr	r1, [sp, #4]
1ff80744:	e088c00c 	add	ip, r8, ip
1ff80748:	e1a0700a 	mov	r7, sl
1ff8074c:	e2877001 	add	r7, r7, #1
1ff80750:	e1570001 	cmp	r7, r1
1ff80754:	aa000152 	bge	1ff80ca4 <vsnprintf+0x594>
1ff80758:	e7d23007 	ldrb	r3, [r2, r7]
1ff8075c:	e3530025 	cmp	r3, #37	; 0x25
1ff80760:	0a000004 	beq	1ff80778 <vsnprintf+0x68>
1ff80764:	e3530000 	cmp	r3, #0
1ff80768:	0a00014d 	beq	1ff80ca4 <vsnprintf+0x594>
1ff8076c:	e4c03001 	strb	r3, [r0], #1
1ff80770:	e28cc001 	add	ip, ip, #1
1ff80774:	eafffff4 	b	1ff8074c <vsnprintf+0x3c>
1ff80778:	e287a001 	add	sl, r7, #1
1ff8077c:	e7d2300a 	ldrb	r3, [r2, sl]
1ff80780:	e2433058 	sub	r3, r3, #88	; 0x58
1ff80784:	e3530020 	cmp	r3, #32
1ff80788:	8affffef 	bhi	1ff8074c <vsnprintf+0x3c>
1ff8078c:	e28f6000 	add	r6, pc, #0
1ff80790:	e796f103 	ldr	pc, [r6, r3, lsl #2]
1ff80794:	1ff80958 	svcne	0x00f80958
1ff80798:	1ff8074c 	svcne	0x00f8074c
1ff8079c:	1ff8074c 	svcne	0x00f8074c
1ff807a0:	1ff8074c 	svcne	0x00f8074c
1ff807a4:	1ff8074c 	svcne	0x00f8074c
1ff807a8:	1ff8074c 	svcne	0x00f8074c
1ff807ac:	1ff8074c 	svcne	0x00f8074c
1ff807b0:	1ff8074c 	svcne	0x00f8074c
1ff807b4:	1ff8074c 	svcne	0x00f8074c
1ff807b8:	1ff8074c 	svcne	0x00f8074c
1ff807bc:	1ff8074c 	svcne	0x00f8074c
1ff807c0:	1ff80a4c 	svcne	0x00f80a4c
1ff807c4:	1ff80818 	svcne	0x00f80818
1ff807c8:	1ff8074c 	svcne	0x00f8074c
1ff807cc:	1ff8074c 	svcne	0x00f8074c
1ff807d0:	1ff8074c 	svcne	0x00f8074c
1ff807d4:	1ff8074c 	svcne	0x00f8074c
1ff807d8:	1ff80818 	svcne	0x00f80818
1ff807dc:	1ff8074c 	svcne	0x00f8074c
1ff807e0:	1ff8074c 	svcne	0x00f8074c
1ff807e4:	1ff8074c 	svcne	0x00f8074c
1ff807e8:	1ff8074c 	svcne	0x00f8074c
1ff807ec:	1ff8074c 	svcne	0x00f8074c
1ff807f0:	1ff8074c 	svcne	0x00f8074c
1ff807f4:	1ff8074c 	svcne	0x00f8074c
1ff807f8:	1ff8074c 	svcne	0x00f8074c
1ff807fc:	1ff8074c 	svcne	0x00f8074c
1ff80800:	1ff80a5c 	svcne	0x00f80a5c
1ff80804:	1ff8074c 	svcne	0x00f8074c
1ff80808:	1ff8074c 	svcne	0x00f8074c
1ff8080c:	1ff8074c 	svcne	0x00f8074c
1ff80810:	1ff8074c 	svcne	0x00f8074c
1ff80814:	1ff80abc 	svcne	0x00f80abc
1ff80818:	e49e3004 	ldr	r3, [lr], #4
1ff8081c:	e3530000 	cmp	r3, #0
1ff80820:	0a0000e3 	beq	1ff80bb4 <vsnprintf+0x4a4>
1ff80824:	e59f148c 	ldr	r1, [pc, #1164]	; 1ff80cb8 <vsnprintf+0x5a8>
1ff80828:	e3a07000 	mov	r7, #0
1ff8082c:	e756f113 	smmul	r6, r3, r1
1ff80830:	e3570011 	cmp	r7, #17
1ff80834:	e1a04146 	asr	r4, r6, #2
1ff80838:	e0846fa6 	add	r6, r4, r6, lsr #31
1ff8083c:	e0864106 	add	r4, r6, r6, lsl #2
1ff80840:	e0434084 	sub	r4, r3, r4, lsl #1
1ff80844:	e2844030 	add	r4, r4, #48	; 0x30
1ff80848:	e7c94007 	strb	r4, [r9, r7]
1ff8084c:	e2874001 	add	r4, r7, #1
1ff80850:	8a000004 	bhi	1ff80868 <vsnprintf+0x158>
1ff80854:	e2833009 	add	r3, r3, #9
1ff80858:	e3530012 	cmp	r3, #18
1ff8085c:	e1a07004 	mov	r7, r4
1ff80860:	e1a03006 	mov	r3, r6
1ff80864:	8afffff0 	bhi	1ff8082c <vsnprintf+0x11c>
1ff80868:	e5dd6008 	ldrb	r6, [sp, #8]
1ff8086c:	e3a08000 	mov	r8, #0
1ff80870:	e3a07000 	mov	r7, #0
1ff80874:	e3560000 	cmp	r6, #0
1ff80878:	e7c98004 	strb	r8, [r9, r4]
1ff8087c:	0a00001f 	beq	1ff80900 <vsnprintf+0x1f0>
1ff80880:	e3a07000 	mov	r7, #0
1ff80884:	e0893007 	add	r3, r9, r7
1ff80888:	e2877001 	add	r7, r7, #1
1ff8088c:	e5d33001 	ldrb	r3, [r3, #1]
1ff80890:	e3530000 	cmp	r3, #0
1ff80894:	1afffffa 	bne	1ff80884 <vsnprintf+0x174>
1ff80898:	e2573001 	subs	r3, r7, #1
1ff8089c:	0a000012 	beq	1ff808ec <vsnprintf+0x1dc>
1ff808a0:	e0894007 	add	r4, r9, r7
1ff808a4:	e3530003 	cmp	r3, #3
1ff808a8:	e5541001 	ldrb	r1, [r4, #-1]
1ff808ac:	e5cd1008 	strb	r1, [sp, #8]
1ff808b0:	e5446001 	strb	r6, [r4, #-1]
1ff808b4:	3a000009 	bcc	1ff808e0 <vsnprintf+0x1d0>
1ff808b8:	e2476002 	sub	r6, r7, #2
1ff808bc:	e3a07001 	mov	r7, #1
1ff808c0:	e7d91006 	ldrb	r1, [r9, r6]
1ff808c4:	e7d93007 	ldrb	r3, [r9, r7]
1ff808c8:	e7c91007 	strb	r1, [r9, r7]
1ff808cc:	e7c93006 	strb	r3, [r9, r6]
1ff808d0:	e2466001 	sub	r6, r6, #1
1ff808d4:	e2877001 	add	r7, r7, #1
1ff808d8:	e1570006 	cmp	r7, r6
1ff808dc:	bafffff7 	blt	1ff808c0 <vsnprintf+0x1b0>
1ff808e0:	e5dd1008 	ldrb	r1, [sp, #8]
1ff808e4:	e3510000 	cmp	r1, #0
1ff808e8:	0a0000b8 	beq	1ff80bd0 <vsnprintf+0x4c0>
1ff808ec:	e3a07000 	mov	r7, #0
1ff808f0:	e7d51007 	ldrb	r1, [r5, r7]
1ff808f4:	e2877001 	add	r7, r7, #1
1ff808f8:	e3510000 	cmp	r1, #0
1ff808fc:	1afffffb 	bne	1ff808f0 <vsnprintf+0x1e0>
1ff80900:	e7c98007 	strb	r8, [r9, r7]
1ff80904:	e5dd7008 	ldrb	r7, [sp, #8]
1ff80908:	e3570000 	cmp	r7, #0
1ff8090c:	0affff8b 	beq	1ff80740 <vsnprintf+0x30>
1ff80910:	e3a03000 	mov	r3, #0
1ff80914:	e7551003 	ldrb	r1, [r5, -r3]
1ff80918:	e1a06003 	mov	r6, r3
1ff8091c:	e2433001 	sub	r3, r3, #1
1ff80920:	e3510000 	cmp	r1, #0
1ff80924:	1afffffa 	bne	1ff80914 <vsnprintf+0x204>
1ff80928:	e59d1004 	ldr	r1, [sp, #4]
1ff8092c:	e4c07001 	strb	r7, [r0], #1
1ff80930:	e2638000 	rsb	r8, r3, #0
1ff80934:	e3730001 	cmn	r3, #1
1ff80938:	0affff81 	beq	1ff80744 <vsnprintf+0x34>
1ff8093c:	e3a03000 	mov	r3, #0
1ff80940:	e7557003 	ldrb	r7, [r5, -r3]
1ff80944:	e7407003 	strb	r7, [r0, -r3]
1ff80948:	e2433001 	sub	r3, r3, #1
1ff8094c:	e1560003 	cmp	r6, r3
1ff80950:	1afffffa 	bne	1ff80940 <vsnprintf+0x230>
1ff80954:	ea0000cd 	b	1ff80c90 <vsnprintf+0x580>
1ff80958:	e49e6004 	ldr	r6, [lr], #4
1ff8095c:	e3560000 	cmp	r6, #0
1ff80960:	0a000093 	beq	1ff80bb4 <vsnprintf+0x4a4>
1ff80964:	e3a07000 	mov	r7, #0
1ff80968:	e1a01fc6 	asr	r1, r6, #31
1ff8096c:	e0863e21 	add	r3, r6, r1, lsr #28
1ff80970:	e3c3100f 	bic	r1, r3, #15
1ff80974:	e0461001 	sub	r1, r6, r1
1ff80978:	e3510009 	cmp	r1, #9
1ff8097c:	e3a04030 	mov	r4, #48	; 0x30
1ff80980:	c3a04037 	movgt	r4, #55	; 0x37
1ff80984:	e0841001 	add	r1, r4, r1
1ff80988:	e2874001 	add	r4, r7, #1
1ff8098c:	e3570011 	cmp	r7, #17
1ff80990:	e7c91007 	strb	r1, [r9, r7]
1ff80994:	8a000005 	bhi	1ff809b0 <vsnprintf+0x2a0>
1ff80998:	e1a01243 	asr	r1, r3, #4
1ff8099c:	e286300f 	add	r3, r6, #15
1ff809a0:	e1a07004 	mov	r7, r4
1ff809a4:	e1a06001 	mov	r6, r1
1ff809a8:	e353001e 	cmp	r3, #30
1ff809ac:	8affffed 	bhi	1ff80968 <vsnprintf+0x258>
1ff809b0:	e5dd6008 	ldrb	r6, [sp, #8]
1ff809b4:	e3a08000 	mov	r8, #0
1ff809b8:	e3a07000 	mov	r7, #0
1ff809bc:	e3560000 	cmp	r6, #0
1ff809c0:	e7c98004 	strb	r8, [r9, r4]
1ff809c4:	0a000084 	beq	1ff80bdc <vsnprintf+0x4cc>
1ff809c8:	e3a07000 	mov	r7, #0
1ff809cc:	e0891007 	add	r1, r9, r7
1ff809d0:	e2877001 	add	r7, r7, #1
1ff809d4:	e5d11001 	ldrb	r1, [r1, #1]
1ff809d8:	e3510000 	cmp	r1, #0
1ff809dc:	1afffffa 	bne	1ff809cc <vsnprintf+0x2bc>
1ff809e0:	e2573001 	subs	r3, r7, #1
1ff809e4:	0a000012 	beq	1ff80a34 <vsnprintf+0x324>
1ff809e8:	e0891007 	add	r1, r9, r7
1ff809ec:	e3530003 	cmp	r3, #3
1ff809f0:	e5514001 	ldrb	r4, [r1, #-1]
1ff809f4:	e5cd4008 	strb	r4, [sp, #8]
1ff809f8:	e5416001 	strb	r6, [r1, #-1]
1ff809fc:	3a000009 	bcc	1ff80a28 <vsnprintf+0x318>
1ff80a00:	e2476002 	sub	r6, r7, #2
1ff80a04:	e3a07001 	mov	r7, #1
1ff80a08:	e7d91006 	ldrb	r1, [r9, r6]
1ff80a0c:	e7d93007 	ldrb	r3, [r9, r7]
1ff80a10:	e7c91007 	strb	r1, [r9, r7]
1ff80a14:	e7c93006 	strb	r3, [r9, r6]
1ff80a18:	e2466001 	sub	r6, r6, #1
1ff80a1c:	e2877001 	add	r7, r7, #1
1ff80a20:	e1570006 	cmp	r7, r6
1ff80a24:	bafffff7 	blt	1ff80a08 <vsnprintf+0x2f8>
1ff80a28:	e5dd1008 	ldrb	r1, [sp, #8]
1ff80a2c:	e3510000 	cmp	r1, #0
1ff80a30:	0a000068 	beq	1ff80bd8 <vsnprintf+0x4c8>
1ff80a34:	e3a07000 	mov	r7, #0
1ff80a38:	e7d51007 	ldrb	r1, [r5, r7]
1ff80a3c:	e2877001 	add	r7, r7, #1
1ff80a40:	e3510000 	cmp	r1, #0
1ff80a44:	1afffffb 	bne	1ff80a38 <vsnprintf+0x328>
1ff80a48:	ea000063 	b	1ff80bdc <vsnprintf+0x4cc>
1ff80a4c:	e49e3004 	ldr	r3, [lr], #4
1ff80a50:	e28cc001 	add	ip, ip, #1
1ff80a54:	e7c03007 	strb	r3, [r0, r7]
1ff80a58:	eaffff3a 	b	1ff80748 <vsnprintf+0x38>
1ff80a5c:	e49e3004 	ldr	r3, [lr], #4
1ff80a60:	e5d37000 	ldrb	r7, [r3]
1ff80a64:	e3570000 	cmp	r7, #0
1ff80a68:	0a000055 	beq	1ff80bc4 <vsnprintf+0x4b4>
1ff80a6c:	e2836001 	add	r6, r3, #1
1ff80a70:	e3a03000 	mov	r3, #0
1ff80a74:	e7564003 	ldrb	r4, [r6, -r3]
1ff80a78:	e1a08003 	mov	r8, r3
1ff80a7c:	e2433001 	sub	r3, r3, #1
1ff80a80:	e3540000 	cmp	r4, #0
1ff80a84:	1afffffa 	bne	1ff80a74 <vsnprintf+0x364>
1ff80a88:	e4c07001 	strb	r7, [r0], #1
1ff80a8c:	e2637000 	rsb	r7, r3, #0
1ff80a90:	e3730001 	cmn	r3, #1
1ff80a94:	0a000006 	beq	1ff80ab4 <vsnprintf+0x3a4>
1ff80a98:	e3a03000 	mov	r3, #0
1ff80a9c:	e7564003 	ldrb	r4, [r6, -r3]
1ff80aa0:	e7404003 	strb	r4, [r0, -r3]
1ff80aa4:	e2433001 	sub	r3, r3, #1
1ff80aa8:	e1580003 	cmp	r8, r3
1ff80aac:	1afffffa 	bne	1ff80a9c <vsnprintf+0x38c>
1ff80ab0:	e0400003 	sub	r0, r0, r3
1ff80ab4:	e087c00c 	add	ip, r7, ip
1ff80ab8:	eaffff22 	b	1ff80748 <vsnprintf+0x38>
1ff80abc:	e49e6004 	ldr	r6, [lr], #4
1ff80ac0:	e3560000 	cmp	r6, #0
1ff80ac4:	0a00003a 	beq	1ff80bb4 <vsnprintf+0x4a4>
1ff80ac8:	e3a07000 	mov	r7, #0
1ff80acc:	e58de000 	str	lr, [sp]
1ff80ad0:	e1a01fc6 	asr	r1, r6, #31
1ff80ad4:	e0863e21 	add	r3, r6, r1, lsr #28
1ff80ad8:	e3c3100f 	bic	r1, r3, #15
1ff80adc:	e0461001 	sub	r1, r6, r1
1ff80ae0:	e3510009 	cmp	r1, #9
1ff80ae4:	e3a04030 	mov	r4, #48	; 0x30
1ff80ae8:	c3a04037 	movgt	r4, #55	; 0x37
1ff80aec:	e287e001 	add	lr, r7, #1
1ff80af0:	e0841001 	add	r1, r4, r1
1ff80af4:	e3570011 	cmp	r7, #17
1ff80af8:	e7c91007 	strb	r1, [r9, r7]
1ff80afc:	8a000005 	bhi	1ff80b18 <vsnprintf+0x408>
1ff80b00:	e1a01243 	asr	r1, r3, #4
1ff80b04:	e286300f 	add	r3, r6, #15
1ff80b08:	e1a0700e 	mov	r7, lr
1ff80b0c:	e1a06001 	mov	r6, r1
1ff80b10:	e353001e 	cmp	r3, #30
1ff80b14:	8affffed 	bhi	1ff80ad0 <vsnprintf+0x3c0>
1ff80b18:	e5dd6008 	ldrb	r6, [sp, #8]
1ff80b1c:	e3a08000 	mov	r8, #0
1ff80b20:	e3a07000 	mov	r7, #0
1ff80b24:	e3560000 	cmp	r6, #0
1ff80b28:	e7c9800e 	strb	r8, [r9, lr]
1ff80b2c:	0a000041 	beq	1ff80c38 <vsnprintf+0x528>
1ff80b30:	e3a07000 	mov	r7, #0
1ff80b34:	e0891007 	add	r1, r9, r7
1ff80b38:	e2877001 	add	r7, r7, #1
1ff80b3c:	e5d11001 	ldrb	r1, [r1, #1]
1ff80b40:	e3510000 	cmp	r1, #0
1ff80b44:	1afffffa 	bne	1ff80b34 <vsnprintf+0x424>
1ff80b48:	e2573001 	subs	r3, r7, #1
1ff80b4c:	0a000012 	beq	1ff80b9c <vsnprintf+0x48c>
1ff80b50:	e0891007 	add	r1, r9, r7
1ff80b54:	e3530003 	cmp	r3, #3
1ff80b58:	e5514001 	ldrb	r4, [r1, #-1]
1ff80b5c:	e5cd4008 	strb	r4, [sp, #8]
1ff80b60:	e5416001 	strb	r6, [r1, #-1]
1ff80b64:	3a000009 	bcc	1ff80b90 <vsnprintf+0x480>
1ff80b68:	e2476002 	sub	r6, r7, #2
1ff80b6c:	e3a07001 	mov	r7, #1
1ff80b70:	e7d91006 	ldrb	r1, [r9, r6]
1ff80b74:	e7d93007 	ldrb	r3, [r9, r7]
1ff80b78:	e7c91007 	strb	r1, [r9, r7]
1ff80b7c:	e7c93006 	strb	r3, [r9, r6]
1ff80b80:	e2466001 	sub	r6, r6, #1
1ff80b84:	e2877001 	add	r7, r7, #1
1ff80b88:	e1570006 	cmp	r7, r6
1ff80b8c:	bafffff7 	blt	1ff80b70 <vsnprintf+0x460>
1ff80b90:	e5dd1008 	ldrb	r1, [sp, #8]
1ff80b94:	e3510000 	cmp	r1, #0
1ff80b98:	0a000025 	beq	1ff80c34 <vsnprintf+0x524>
1ff80b9c:	e3a07000 	mov	r7, #0
1ff80ba0:	e7d51007 	ldrb	r1, [r5, r7]
1ff80ba4:	e2877001 	add	r7, r7, #1
1ff80ba8:	e3510000 	cmp	r1, #0
1ff80bac:	1afffffb 	bne	1ff80ba0 <vsnprintf+0x490>
1ff80bb0:	ea000020 	b	1ff80c38 <vsnprintf+0x528>
1ff80bb4:	e3a03030 	mov	r3, #48	; 0x30
1ff80bb8:	e4c03001 	strb	r3, [r0], #1
1ff80bbc:	e28cc001 	add	ip, ip, #1
1ff80bc0:	eafffee0 	b	1ff80748 <vsnprintf+0x38>
1ff80bc4:	e3a07000 	mov	r7, #0
1ff80bc8:	e087c00c 	add	ip, r7, ip
1ff80bcc:	eafffedd 	b	1ff80748 <vsnprintf+0x38>
1ff80bd0:	e3a07000 	mov	r7, #0
1ff80bd4:	eaffff49 	b	1ff80900 <vsnprintf+0x1f0>
1ff80bd8:	e3a07000 	mov	r7, #0
1ff80bdc:	e7c98007 	strb	r8, [r9, r7]
1ff80be0:	e5dd7008 	ldrb	r7, [sp, #8]
1ff80be4:	e3570000 	cmp	r7, #0
1ff80be8:	0afffed4 	beq	1ff80740 <vsnprintf+0x30>
1ff80bec:	e3a03000 	mov	r3, #0
1ff80bf0:	e7551003 	ldrb	r1, [r5, -r3]
1ff80bf4:	e1a06003 	mov	r6, r3
1ff80bf8:	e2433001 	sub	r3, r3, #1
1ff80bfc:	e3510000 	cmp	r1, #0
1ff80c00:	1afffffa 	bne	1ff80bf0 <vsnprintf+0x4e0>
1ff80c04:	e4c07001 	strb	r7, [r0], #1
1ff80c08:	e2638000 	rsb	r8, r3, #0
1ff80c0c:	e3730001 	cmn	r3, #1
1ff80c10:	0afffeca 	beq	1ff80740 <vsnprintf+0x30>
1ff80c14:	e59d1004 	ldr	r1, [sp, #4]
1ff80c18:	e3a03000 	mov	r3, #0
1ff80c1c:	e7557003 	ldrb	r7, [r5, -r3]
1ff80c20:	e7407003 	strb	r7, [r0, -r3]
1ff80c24:	e2433001 	sub	r3, r3, #1
1ff80c28:	e1560003 	cmp	r6, r3
1ff80c2c:	1afffffa 	bne	1ff80c1c <vsnprintf+0x50c>
1ff80c30:	ea000016 	b	1ff80c90 <vsnprintf+0x580>
1ff80c34:	e3a07000 	mov	r7, #0
1ff80c38:	e7c98007 	strb	r8, [r9, r7]
1ff80c3c:	e5dd7008 	ldrb	r7, [sp, #8]
1ff80c40:	e59d1004 	ldr	r1, [sp, #4]
1ff80c44:	e3570000 	cmp	r7, #0
1ff80c48:	0a000012 	beq	1ff80c98 <vsnprintf+0x588>
1ff80c4c:	e3a03000 	mov	r3, #0
1ff80c50:	e7554003 	ldrb	r4, [r5, -r3]
1ff80c54:	e1a06003 	mov	r6, r3
1ff80c58:	e2433001 	sub	r3, r3, #1
1ff80c5c:	e3540000 	cmp	r4, #0
1ff80c60:	1afffffa 	bne	1ff80c50 <vsnprintf+0x540>
1ff80c64:	e59de000 	ldr	lr, [sp]
1ff80c68:	e4c07001 	strb	r7, [r0], #1
1ff80c6c:	e2638000 	rsb	r8, r3, #0
1ff80c70:	e3730001 	cmn	r3, #1
1ff80c74:	0afffeb2 	beq	1ff80744 <vsnprintf+0x34>
1ff80c78:	e3a03000 	mov	r3, #0
1ff80c7c:	e7557003 	ldrb	r7, [r5, -r3]
1ff80c80:	e7407003 	strb	r7, [r0, -r3]
1ff80c84:	e2433001 	sub	r3, r3, #1
1ff80c88:	e1560003 	cmp	r6, r3
1ff80c8c:	1afffffa 	bne	1ff80c7c <vsnprintf+0x56c>
1ff80c90:	e0400003 	sub	r0, r0, r3
1ff80c94:	eafffeaa 	b	1ff80744 <vsnprintf+0x34>
1ff80c98:	e59de000 	ldr	lr, [sp]
1ff80c9c:	eafffea8 	b	1ff80744 <vsnprintf+0x34>
1ff80ca0:	e3a0c000 	mov	ip, #0
1ff80ca4:	e3a01000 	mov	r1, #0
1ff80ca8:	e5c01000 	strb	r1, [r0]
1ff80cac:	e1a0000c 	mov	r0, ip
1ff80cb0:	e24bd01c 	sub	sp, fp, #28
1ff80cb4:	e8bd8ff0 	pop	{r4, r5, r6, r7, r8, r9, sl, fp, pc}
1ff80cb8:	66666667 	strbtvs	r6, [r6], -r7, ror #12

1ff80cbc <print>:
1ff80cbc:	e24dd00c 	sub	sp, sp, #12
1ff80cc0:	e92d48f0 	push	{r4, r5, r6, r7, fp, lr}
1ff80cc4:	e28db010 	add	fp, sp, #16
1ff80cc8:	e24dd00c 	sub	sp, sp, #12
1ff80ccc:	e59f4090 	ldr	r4, [pc, #144]	; 1ff80d64 <print+0xa8>
1ff80cd0:	e1a05000 	mov	r5, r0
1ff80cd4:	e28b0008 	add	r0, fp, #8
1ff80cd8:	e880000e 	stm	r0, {r1, r2, r3}
1ff80cdc:	e28b3008 	add	r3, fp, #8
1ff80ce0:	e1a00004 	mov	r0, r4
1ff80ce4:	e3a01c02 	mov	r1, #512	; 0x200
1ff80ce8:	e1a02005 	mov	r2, r5
1ff80cec:	e58d3008 	str	r3, [sp, #8]
1ff80cf0:	ebfffe86 	bl	1ff80710 <vsnprintf>
1ff80cf4:	e3500000 	cmp	r0, #0
1ff80cf8:	0a00000e 	beq	1ff80d38 <print+0x7c>
1ff80cfc:	e59f6064 	ldr	r6, [pc, #100]	; 1ff80d68 <print+0xac>
1ff80d00:	e59f7064 	ldr	r7, [pc, #100]	; 1ff80d6c <print+0xb0>
1ff80d04:	e1a05000 	mov	r5, r0
1ff80d08:	e5961000 	ldr	r1, [r6]
1ff80d0c:	e4d40001 	ldrb	r0, [r4], #1
1ff80d10:	e5972000 	ldr	r2, [r7]
1ff80d14:	e3a03000 	mov	r3, #0
1ff80d18:	e58d0000 	str	r0, [sp]
1ff80d1c:	e3a00001 	mov	r0, #1
1ff80d20:	ebfffcca 	bl	1ff80050 <putc>
1ff80d24:	e5960000 	ldr	r0, [r6]
1ff80d28:	e2555001 	subs	r5, r5, #1
1ff80d2c:	e2801008 	add	r1, r0, #8
1ff80d30:	e5861000 	str	r1, [r6]
1ff80d34:	1afffff4 	bne	1ff80d0c <print+0x50>
1ff80d38:	e59f002c 	ldr	r0, [pc, #44]	; 1ff80d6c <print+0xb0>
1ff80d3c:	e59f1024 	ldr	r1, [pc, #36]	; 1ff80d68 <print+0xac>
1ff80d40:	e3a03000 	mov	r3, #0
1ff80d44:	e5902000 	ldr	r2, [r0]
1ff80d48:	e5813000 	str	r3, [r1]
1ff80d4c:	e2821009 	add	r1, r2, #9
1ff80d50:	e5801000 	str	r1, [r0]
1ff80d54:	e24bd010 	sub	sp, fp, #16
1ff80d58:	e8bd48f0 	pop	{r4, r5, r6, r7, fp, lr}
1ff80d5c:	e28dd00c 	add	sp, sp, #12
1ff80d60:	e12fff1e 	bx	lr
1ff80d64:	1ff868f8 	svcne	0x00f868f8
1ff80d68:	1ff81868 	svcne	0x00f81868
1ff80d6c:	1ff8186c 	svcne	0x00f8186c

1ff80d70 <__udivsi3>:
1ff80d70:	e2512001 	subs	r2, r1, #1
1ff80d74:	012fff1e 	bxeq	lr
1ff80d78:	3a000036 	bcc	1ff80e58 <__udivsi3+0xe8>
1ff80d7c:	e1500001 	cmp	r0, r1
1ff80d80:	9a000022 	bls	1ff80e10 <__udivsi3+0xa0>
1ff80d84:	e1110002 	tst	r1, r2
1ff80d88:	0a000023 	beq	1ff80e1c <__udivsi3+0xac>
1ff80d8c:	e311020e 	tst	r1, #-536870912	; 0xe0000000
1ff80d90:	01a01181 	lsleq	r1, r1, #3
1ff80d94:	03a03008 	moveq	r3, #8
1ff80d98:	13a03001 	movne	r3, #1
1ff80d9c:	e3510201 	cmp	r1, #268435456	; 0x10000000
1ff80da0:	31510000 	cmpcc	r1, r0
1ff80da4:	31a01201 	lslcc	r1, r1, #4
1ff80da8:	31a03203 	lslcc	r3, r3, #4
1ff80dac:	3afffffa 	bcc	1ff80d9c <__udivsi3+0x2c>
1ff80db0:	e3510102 	cmp	r1, #-2147483648	; 0x80000000
1ff80db4:	31510000 	cmpcc	r1, r0
1ff80db8:	31a01081 	lslcc	r1, r1, #1
1ff80dbc:	31a03083 	lslcc	r3, r3, #1
1ff80dc0:	3afffffa 	bcc	1ff80db0 <__udivsi3+0x40>
1ff80dc4:	e3a02000 	mov	r2, #0
1ff80dc8:	e1500001 	cmp	r0, r1
1ff80dcc:	20400001 	subcs	r0, r0, r1
1ff80dd0:	21822003 	orrcs	r2, r2, r3
1ff80dd4:	e15000a1 	cmp	r0, r1, lsr #1
1ff80dd8:	204000a1 	subcs	r0, r0, r1, lsr #1
1ff80ddc:	218220a3 	orrcs	r2, r2, r3, lsr #1
1ff80de0:	e1500121 	cmp	r0, r1, lsr #2
1ff80de4:	20400121 	subcs	r0, r0, r1, lsr #2
1ff80de8:	21822123 	orrcs	r2, r2, r3, lsr #2
1ff80dec:	e15001a1 	cmp	r0, r1, lsr #3
1ff80df0:	204001a1 	subcs	r0, r0, r1, lsr #3
1ff80df4:	218221a3 	orrcs	r2, r2, r3, lsr #3
1ff80df8:	e3500000 	cmp	r0, #0
1ff80dfc:	11b03223 	lsrsne	r3, r3, #4
1ff80e00:	11a01221 	lsrne	r1, r1, #4
1ff80e04:	1affffef 	bne	1ff80dc8 <__udivsi3+0x58>
1ff80e08:	e1a00002 	mov	r0, r2
1ff80e0c:	e12fff1e 	bx	lr
1ff80e10:	03a00001 	moveq	r0, #1
1ff80e14:	13a00000 	movne	r0, #0
1ff80e18:	e12fff1e 	bx	lr
1ff80e1c:	e3510801 	cmp	r1, #65536	; 0x10000
1ff80e20:	21a01821 	lsrcs	r1, r1, #16
1ff80e24:	23a02010 	movcs	r2, #16
1ff80e28:	33a02000 	movcc	r2, #0
1ff80e2c:	e3510c01 	cmp	r1, #256	; 0x100
1ff80e30:	21a01421 	lsrcs	r1, r1, #8
1ff80e34:	22822008 	addcs	r2, r2, #8
1ff80e38:	e3510010 	cmp	r1, #16
1ff80e3c:	21a01221 	lsrcs	r1, r1, #4
1ff80e40:	22822004 	addcs	r2, r2, #4
1ff80e44:	e3510004 	cmp	r1, #4
1ff80e48:	82822003 	addhi	r2, r2, #3
1ff80e4c:	908220a1 	addls	r2, r2, r1, lsr #1
1ff80e50:	e1a00230 	lsr	r0, r0, r2
1ff80e54:	e12fff1e 	bx	lr
1ff80e58:	e3500000 	cmp	r0, #0
1ff80e5c:	13e00000 	mvnne	r0, #0
1ff80e60:	ea000059 	b	1ff80fcc <__aeabi_idiv0>

1ff80e64 <__aeabi_uidivmod>:
1ff80e64:	e3510000 	cmp	r1, #0
1ff80e68:	0afffffa 	beq	1ff80e58 <__udivsi3+0xe8>
1ff80e6c:	e92d4003 	push	{r0, r1, lr}
1ff80e70:	ebffffbe 	bl	1ff80d70 <__udivsi3>
1ff80e74:	e8bd4006 	pop	{r1, r2, lr}
1ff80e78:	e0030092 	mul	r3, r2, r0
1ff80e7c:	e0411003 	sub	r1, r1, r3
1ff80e80:	e12fff1e 	bx	lr

1ff80e84 <__divsi3>:
1ff80e84:	e3510000 	cmp	r1, #0
1ff80e88:	0a000043 	beq	1ff80f9c <.divsi3_skip_div0_test+0x110>

1ff80e8c <.divsi3_skip_div0_test>:
1ff80e8c:	e020c001 	eor	ip, r0, r1
1ff80e90:	42611000 	rsbmi	r1, r1, #0
1ff80e94:	e2512001 	subs	r2, r1, #1
1ff80e98:	0a000027 	beq	1ff80f3c <.divsi3_skip_div0_test+0xb0>
1ff80e9c:	e1b03000 	movs	r3, r0
1ff80ea0:	42603000 	rsbmi	r3, r0, #0
1ff80ea4:	e1530001 	cmp	r3, r1
1ff80ea8:	9a000026 	bls	1ff80f48 <.divsi3_skip_div0_test+0xbc>
1ff80eac:	e1110002 	tst	r1, r2
1ff80eb0:	0a000028 	beq	1ff80f58 <.divsi3_skip_div0_test+0xcc>
1ff80eb4:	e311020e 	tst	r1, #-536870912	; 0xe0000000
1ff80eb8:	01a01181 	lsleq	r1, r1, #3
1ff80ebc:	03a02008 	moveq	r2, #8
1ff80ec0:	13a02001 	movne	r2, #1
1ff80ec4:	e3510201 	cmp	r1, #268435456	; 0x10000000
1ff80ec8:	31510003 	cmpcc	r1, r3
1ff80ecc:	31a01201 	lslcc	r1, r1, #4
1ff80ed0:	31a02202 	lslcc	r2, r2, #4
1ff80ed4:	3afffffa 	bcc	1ff80ec4 <.divsi3_skip_div0_test+0x38>
1ff80ed8:	e3510102 	cmp	r1, #-2147483648	; 0x80000000
1ff80edc:	31510003 	cmpcc	r1, r3
1ff80ee0:	31a01081 	lslcc	r1, r1, #1
1ff80ee4:	31a02082 	lslcc	r2, r2, #1
1ff80ee8:	3afffffa 	bcc	1ff80ed8 <.divsi3_skip_div0_test+0x4c>
1ff80eec:	e3a00000 	mov	r0, #0
1ff80ef0:	e1530001 	cmp	r3, r1
1ff80ef4:	20433001 	subcs	r3, r3, r1
1ff80ef8:	21800002 	orrcs	r0, r0, r2
1ff80efc:	e15300a1 	cmp	r3, r1, lsr #1
1ff80f00:	204330a1 	subcs	r3, r3, r1, lsr #1
1ff80f04:	218000a2 	orrcs	r0, r0, r2, lsr #1
1ff80f08:	e1530121 	cmp	r3, r1, lsr #2
1ff80f0c:	20433121 	subcs	r3, r3, r1, lsr #2
1ff80f10:	21800122 	orrcs	r0, r0, r2, lsr #2
1ff80f14:	e15301a1 	cmp	r3, r1, lsr #3
1ff80f18:	204331a1 	subcs	r3, r3, r1, lsr #3
1ff80f1c:	218001a2 	orrcs	r0, r0, r2, lsr #3
1ff80f20:	e3530000 	cmp	r3, #0
1ff80f24:	11b02222 	lsrsne	r2, r2, #4
1ff80f28:	11a01221 	lsrne	r1, r1, #4
1ff80f2c:	1affffef 	bne	1ff80ef0 <.divsi3_skip_div0_test+0x64>
1ff80f30:	e35c0000 	cmp	ip, #0
1ff80f34:	42600000 	rsbmi	r0, r0, #0
1ff80f38:	e12fff1e 	bx	lr
1ff80f3c:	e13c0000 	teq	ip, r0
1ff80f40:	42600000 	rsbmi	r0, r0, #0
1ff80f44:	e12fff1e 	bx	lr
1ff80f48:	33a00000 	movcc	r0, #0
1ff80f4c:	01a00fcc 	asreq	r0, ip, #31
1ff80f50:	03800001 	orreq	r0, r0, #1
1ff80f54:	e12fff1e 	bx	lr
1ff80f58:	e3510801 	cmp	r1, #65536	; 0x10000
1ff80f5c:	21a01821 	lsrcs	r1, r1, #16
1ff80f60:	23a02010 	movcs	r2, #16
1ff80f64:	33a02000 	movcc	r2, #0
1ff80f68:	e3510c01 	cmp	r1, #256	; 0x100
1ff80f6c:	21a01421 	lsrcs	r1, r1, #8
1ff80f70:	22822008 	addcs	r2, r2, #8
1ff80f74:	e3510010 	cmp	r1, #16
1ff80f78:	21a01221 	lsrcs	r1, r1, #4
1ff80f7c:	22822004 	addcs	r2, r2, #4
1ff80f80:	e3510004 	cmp	r1, #4
1ff80f84:	82822003 	addhi	r2, r2, #3
1ff80f88:	908220a1 	addls	r2, r2, r1, lsr #1
1ff80f8c:	e35c0000 	cmp	ip, #0
1ff80f90:	e1a00233 	lsr	r0, r3, r2
1ff80f94:	42600000 	rsbmi	r0, r0, #0
1ff80f98:	e12fff1e 	bx	lr
1ff80f9c:	e3500000 	cmp	r0, #0
1ff80fa0:	c3e00102 	mvngt	r0, #-2147483648	; 0x80000000
1ff80fa4:	b3a00102 	movlt	r0, #-2147483648	; 0x80000000
1ff80fa8:	ea000007 	b	1ff80fcc <__aeabi_idiv0>

1ff80fac <__aeabi_idivmod>:
1ff80fac:	e3510000 	cmp	r1, #0
1ff80fb0:	0afffff9 	beq	1ff80f9c <.divsi3_skip_div0_test+0x110>
1ff80fb4:	e92d4003 	push	{r0, r1, lr}
1ff80fb8:	ebffffb3 	bl	1ff80e8c <.divsi3_skip_div0_test>
1ff80fbc:	e8bd4006 	pop	{r1, r2, lr}
1ff80fc0:	e0030092 	mul	r3, r2, r0
1ff80fc4:	e0411003 	sub	r1, r1, r3
1ff80fc8:	e12fff1e 	bx	lr

1ff80fcc <__aeabi_idiv0>:
1ff80fcc:	e12fff1e 	bx	lr

Disassembly of section .rodata:

1ff80fd0 <font>:
	...
1ff80fd8:	81a5817e 			; <UNDEFINED> instruction: 0x81a5817e
1ff80fdc:	7e8199bd 			; <UNDEFINED> instruction: 0x7e8199bd
1ff80fe0:	ffdbff7e 			; <UNDEFINED> instruction: 0xffdbff7e
1ff80fe4:	7effe7c3 	cdpvc	7, 15, cr14, cr15, cr3, {6}
1ff80fe8:	fefefe6c 	cdp2	14, 15, cr15, cr14, cr12, {3}
1ff80fec:	0010387c 	andseq	r3, r0, ip, ror r8
1ff80ff0:	fe7c3810 	vfmab.bf16	<illegal reg q9.5>, q6, d0[0]
1ff80ff4:	0010387c 	andseq	r3, r0, ip, ror r8
1ff80ff8:	ff183c3c 			; <UNDEFINED> instruction: 0xff183c3c
1ff80ffc:	003c18e7 	eorseq	r1, ip, r7, ror #17
1ff81000:	fe7c3810 	vfmab.bf16	<illegal reg q9.5>, q6, d0[0]
1ff81004:	003810ee 	eorseq	r1, r8, lr, ror #1
1ff81008:	3c180000 	ldccc	0, cr0, [r8], {-0}
1ff8100c:	0000183c 	andeq	r1, r0, ip, lsr r8
1ff81010:	c3e7ffff 	mvngt	pc, #1020	; 0x3fc
1ff81014:	ffffe7c3 			; <UNDEFINED> instruction: 0xffffe7c3
1ff81018:	42663c00 	rsbmi	r3, r6, #0, 24
1ff8101c:	003c6642 	eorseq	r6, ip, r2, asr #12
1ff81020:	bd99c3ff 	ldclt	3, cr12, [r9, #1020]	; 0x3fc
1ff81024:	ffc399bd 			; <UNDEFINED> instruction: 0xffc399bd
1ff81028:	7d0f070f 	stcvc	7, cr0, [pc, #-60]	; 1ff80ff4 <font+0x24>
1ff8102c:	78cccccc 	stmiavc	ip, {r2, r3, r6, r7, sl, fp, lr, pc}^
1ff81030:	6666663c 			; <UNDEFINED> instruction: 0x6666663c
1ff81034:	187e183c 	ldmdane	lr!, {r2, r3, r4, r5, fp, ip}^
1ff81038:	0a0a0c08 	beq	20204060 <data_abort_handler+0x204090>
1ff8103c:	00f07808 	rscseq	r7, r0, r8, lsl #16
1ff81040:	161a1418 			; <UNDEFINED> instruction: 0x161a1418
1ff81044:	1c0ee272 	sfmne	f6, 1, [lr], {114}	; 0x72
1ff81048:	ee385410 	mrc	4, 1, r5, cr8, cr0, {0}
1ff8104c:	00105438 	andseq	r5, r0, r8, lsr r4
1ff81050:	fef8e080 	cdp2	0, 15, cr14, cr8, cr0, {4}
1ff81054:	0080e0f8 	strdeq	lr, [r0], r8
1ff81058:	fe3e0e02 	cdp2	14, 3, cr0, cr14, cr2, {0}
1ff8105c:	00020e3e 	andeq	r0, r2, lr, lsr lr
1ff81060:	185a3c18 	ldmdane	sl, {r3, r4, sl, fp, ip, sp}^
1ff81064:	00183c5a 	andseq	r3, r8, sl, asr ip
1ff81068:	66666666 	strbtvs	r6, [r6], -r6, ror #12
1ff8106c:	00660066 	rsbeq	r0, r6, r6, rrx
1ff81070:	dbdbdb7f 	blle	1f677e74 <__start__-0x90818c>
1ff81074:	001b1b7b 	andseq	r1, fp, fp, ror fp
1ff81078:	4438221c 	ldrtmi	r2, [r8], #-540	; 0xfffffde4
1ff8107c:	70883844 	addvc	r3, r8, r4, asr #16
1ff81080:	00000000 	andeq	r0, r0, r0
1ff81084:	007e7e7e 	rsbseq	r7, lr, lr, ror lr
1ff81088:	185a3c18 	ldmdane	sl, {r3, r4, sl, fp, ip, sp}^
1ff8108c:	7e183c5a 	mrcvc	12, 0, r3, cr8, cr10, {2}
1ff81090:	185a3c18 	ldmdane	sl, {r3, r4, sl, fp, ip, sp}^
1ff81094:	00181818 	andseq	r1, r8, r8, lsl r8
1ff81098:	18181818 	ldmdane	r8, {r3, r4, fp, ip}
1ff8109c:	00183c5a 	andseq	r3, r8, sl, asr ip
1ff810a0:	fe0c1800 	vcmla.f16	d1, d12, d0[0], #0
1ff810a4:	0000180c 	andeq	r1, r0, ip, lsl #16
1ff810a8:	fe603000 	cdp2	0, 6, cr3, cr0, cr0, {0}
1ff810ac:	00003060 	andeq	r3, r0, r0, rrx
1ff810b0:	c0c00000 	sbcgt	r0, r0, r0
1ff810b4:	0000fec0 	andeq	pc, r0, r0, asr #29
1ff810b8:	ff422400 			; <UNDEFINED> instruction: 0xff422400
1ff810bc:	00002442 	andeq	r2, r0, r2, asr #8
1ff810c0:	7c381000 	ldcvc	0, cr1, [r8], #-0
1ff810c4:	0000fefe 	strdeq	pc, [r0], -lr
1ff810c8:	7cfefe00 	ldclvc	14, cr15, [lr]
1ff810cc:	00001038 	andeq	r1, r0, r8, lsr r0
	...
1ff810d8:	183c3c18 	ldmdane	ip!, {r3, r4, sl, fp, ip, sp}
1ff810dc:	00180018 	andseq	r0, r8, r8, lsl r0
1ff810e0:	0024246c 	eoreq	r2, r4, ip, ror #8
1ff810e4:	00000000 	andeq	r0, r0, r0
1ff810e8:	6cfe6c6c 	ldclvs	12, cr6, [lr], #432	; 0x1b0
1ff810ec:	006c6cfe 	strdeq	r6, [ip], #-206	; 0xffffff32	; <UNPREDICTABLE>
1ff810f0:	7cd07c10 	ldclvc	12, cr7, [r0], {16}
1ff810f4:	0010fc16 	andseq	pc, r0, r6, lsl ip	; <UNPREDICTABLE>
1ff810f8:	d8ac6600 	stmiale	ip!, {r9, sl, sp, lr}
1ff810fc:	00cc6a36 	sbceq	r6, ip, r6, lsr sl
1ff81100:	78384c38 	ldmdavc	r8!, {r3, r4, r5, sl, fp, lr}
1ff81104:	007accce 	rsbseq	ip, sl, lr, asr #25
1ff81108:	00201030 	eoreq	r1, r0, r0, lsr r0
1ff8110c:	00000000 	andeq	r0, r0, r0
1ff81110:	60603018 	rsbvs	r3, r0, r8, lsl r0
1ff81114:	00183060 	andseq	r3, r8, r0, rrx
1ff81118:	18183060 	ldmdane	r8, {r5, r6, ip, sp}
1ff8111c:	00603018 	rsbeq	r3, r0, r8, lsl r0
1ff81120:	ff3c6600 			; <UNDEFINED> instruction: 0xff3c6600
1ff81124:	0000663c 	andeq	r6, r0, ip, lsr r6
1ff81128:	fc303000 	ldc2	0, cr3, [r0], #-0
1ff8112c:	00003030 	andeq	r3, r0, r0, lsr r0
1ff81130:	00000000 	andeq	r0, r0, r0
1ff81134:	20103000 	andscs	r3, r0, r0
1ff81138:	fc000000 	stc2	0, cr0, [r0], {-0}
	...
1ff81144:	00300000 	eorseq	r0, r0, r0
1ff81148:	180c0602 	stmdane	ip, {r1, r9, sl}
1ff8114c:	00c06030 	sbceq	r6, r0, r0, lsr r0
1ff81150:	f6dece7c 			; <UNDEFINED> instruction: 0xf6dece7c
1ff81154:	007ce6e6 	rsbseq	lr, ip, r6, ror #13
1ff81158:	18783818 	ldmdane	r8!, {r3, r4, fp, ip, sp}^
1ff8115c:	007e1818 	rsbseq	r1, lr, r8, lsl r8
1ff81160:	1c06c67c 	stcne	6, cr12, [r6], {124}	; 0x7c
1ff81164:	00fec670 	rscseq	ip, lr, r0, ror r6
1ff81168:	3c06c67c 	stccc	6, cr12, [r6], {124}	; 0x7c
1ff8116c:	007cc606 	rsbseq	ip, ip, r6, lsl #12
1ff81170:	cc6c3c1c 	stclgt	12, cr3, [ip], #-112	; 0xffffff90
1ff81174:	001e0cfe 			; <UNDEFINED> instruction: 0x001e0cfe
1ff81178:	06fcc0fe 			; <UNDEFINED> instruction: 0x06fcc0fe
1ff8117c:	007cc606 	rsbseq	ip, ip, r6, lsl #12
1ff81180:	fcc0c67c 	stc2l	6, cr12, [r0], {124}	; 0x7c
1ff81184:	007cc6c6 	rsbseq	ip, ip, r6, asr #13
1ff81188:	180cc6fe 	stmdane	ip, {r1, r2, r3, r4, r5, r6, r7, r9, sl, lr, pc}
1ff8118c:	00303030 	eorseq	r3, r0, r0, lsr r0
1ff81190:	7cc6c67c 	stclvc	6, cr12, [r6], {124}	; 0x7c
1ff81194:	007cc6c6 	rsbseq	ip, ip, r6, asr #13
1ff81198:	7ec6c67c 	mcrvc	6, 6, ip, cr6, cr12, {3}
1ff8119c:	007cc606 	rsbseq	ip, ip, r6, lsl #12
1ff811a0:	00003000 	andeq	r3, r0, r0
1ff811a4:	00003000 	andeq	r3, r0, r0
1ff811a8:	00003000 	andeq	r3, r0, r0
1ff811ac:	20103000 	andscs	r3, r0, r0
1ff811b0:	6030180c 	eorsvs	r1, r0, ip, lsl #16
1ff811b4:	000c1830 	andeq	r1, ip, r0, lsr r8
1ff811b8:	007e0000 	rsbseq	r0, lr, r0
1ff811bc:	00007e00 	andeq	r7, r0, r0, lsl #28
1ff811c0:	0c183060 	ldceq	0, cr3, [r8], {96}	; 0x60
1ff811c4:	00603018 	rsbeq	r3, r0, r8, lsl r0
1ff811c8:	180ccc78 	stmdane	ip, {r3, r4, r5, r6, sl, fp, lr, pc}
1ff811cc:	00300030 	eorseq	r0, r0, r0, lsr r0
1ff811d0:	a69e827c 			; <UNDEFINED> instruction: 0xa69e827c
1ff811d4:	007c809e 			; <UNDEFINED> instruction: 0x007c809e
1ff811d8:	fec6c67c 	mcr2	6, 6, ip, cr6, cr12, {3}
1ff811dc:	00c6c6c6 	sbceq	ip, r6, r6, asr #13
1ff811e0:	7c6666fc 	stclvc	6, cr6, [r6], #-1008	; 0xfffffc10
1ff811e4:	00fc6666 	rscseq	r6, ip, r6, ror #12
1ff811e8:	c0c0c67c 	sbcgt	ip, r0, ip, ror r6
1ff811ec:	007cc6c0 	rsbseq	ip, ip, r0, asr #13
1ff811f0:	666666fc 			; <UNDEFINED> instruction: 0x666666fc
1ff811f4:	00fc6666 	rscseq	r6, ip, r6, ror #12
1ff811f8:	786862fe 	stmdavc	r8!, {r1, r2, r3, r4, r5, r6, r7, r9, sp, lr}^
1ff811fc:	00fe6268 	rscseq	r6, lr, r8, ror #4
1ff81200:	786862fe 	stmdavc	r8!, {r1, r2, r3, r4, r5, r6, r7, r9, sp, lr}^
1ff81204:	00f06068 	rscseq	r6, r0, r8, rrx
1ff81208:	c0c6c67c 	sbcgt	ip, r6, ip, ror r6
1ff8120c:	007ec6ce 	rsbseq	ip, lr, lr, asr #13
1ff81210:	fec6c6c6 	cdp2	6, 12, cr12, cr6, cr6, {6}
1ff81214:	00c6c6c6 	sbceq	ip, r6, r6, asr #13
1ff81218:	1818183c 	ldmdane	r8, {r2, r3, r4, r5, fp, ip}
1ff8121c:	003c1818 	eorseq	r1, ip, r8, lsl r8
1ff81220:	0c0c0c1e 	stceq	12, cr0, [ip], {30}
1ff81224:	0078cccc 	rsbseq	ip, r8, ip, asr #25
1ff81228:	786c66e6 	stmdavc	ip!, {r1, r2, r5, r6, r7, r9, sl, sp, lr}^
1ff8122c:	00e6666c 	rsceq	r6, r6, ip, ror #12
1ff81230:	606060f0 	strdvs	r6, [r0], #-0	; <UNPREDICTABLE>
1ff81234:	00fe6662 	rscseq	r6, lr, r2, ror #12
1ff81238:	feeec682 	cdp2	6, 14, cr12, cr14, cr2, {4}
1ff8123c:	00c6c6d6 	ldrdeq	ip, [r6], #102	; 0x66
1ff81240:	def6e6c6 	cdple	6, 15, cr14, cr6, cr6, {6}
1ff81244:	00c6c6ce 	sbceq	ip, r6, lr, asr #13
1ff81248:	c6c6c67c 			; <UNDEFINED> instruction: 0xc6c6c67c
1ff8124c:	007cc6c6 	rsbseq	ip, ip, r6, asr #13
1ff81250:	7c6666fc 	stclvc	6, cr6, [r6], #-1008	; 0xfffffc10
1ff81254:	00f06060 	rscseq	r6, r0, r0, rrx
1ff81258:	c6c6c67c 			; <UNDEFINED> instruction: 0xc6c6c67c
1ff8125c:	067cded6 			; <UNDEFINED> instruction: 0x067cded6
1ff81260:	7c6666fc 	stclvc	6, cr6, [r6], #-1008	; 0xfffffc10
1ff81264:	00e66666 	rsceq	r6, r6, r6, ror #12
1ff81268:	7cc0c67c 	stclvc	6, cr12, [r0], {124}	; 0x7c
1ff8126c:	007cc606 	rsbseq	ip, ip, r6, lsl #12
1ff81270:	185a5a7e 	ldmdane	sl, {r1, r2, r3, r4, r5, r6, r9, fp, ip, lr}^
1ff81274:	003c1818 	eorseq	r1, ip, r8, lsl r8
1ff81278:	c6c6c6c6 	strbgt	ip, [r6], r6, asr #13
1ff8127c:	007cc6c6 	rsbseq	ip, ip, r6, asr #13
1ff81280:	c6c6c6c6 	strbgt	ip, [r6], r6, asr #13
1ff81284:	0010386c 	andseq	r3, r0, ip, ror #16
1ff81288:	fed6c6c6 	cdp2	6, 13, cr12, cr6, cr6, {6}
1ff8128c:	0082c6ee 	addeq	ip, r2, lr, ror #13
1ff81290:	38386cc6 	ldmdacc	r8!, {r1, r2, r6, r7, sl, fp, sp, lr}
1ff81294:	00c66c38 	sbceq	r6, r6, r8, lsr ip
1ff81298:	3c666666 	stclcc	6, cr6, [r6], #-408	; 0xfffffe68
1ff8129c:	003c1818 	eorseq	r1, ip, r8, lsl r8
1ff812a0:	188cc6fe 	stmne	ip, {r1, r2, r3, r4, r5, r6, r7, r9, sl, lr, pc}
1ff812a4:	00fe6632 	rscseq	r6, lr, r2, lsr r6
1ff812a8:	60606078 	rsbvs	r6, r0, r8, ror r0
1ff812ac:	00786060 	rsbseq	r6, r8, r0, rrx
1ff812b0:	183060c0 	ldmdane	r0!, {r6, r7, sp, lr}
1ff812b4:	0002060c 	andeq	r0, r2, ip, lsl #12
1ff812b8:	18181878 	ldmdane	r8, {r3, r4, r5, r6, fp, ip}
1ff812bc:	00781818 	rsbseq	r1, r8, r8, lsl r8
1ff812c0:	c66c3810 			; <UNDEFINED> instruction: 0xc66c3810
	...
1ff812cc:	ff000000 			; <UNDEFINED> instruction: 0xff000000
1ff812d0:	00102030 	andseq	r2, r0, r0, lsr r0
1ff812d4:	00000000 	andeq	r0, r0, r0
1ff812d8:	0c780000 	ldcleq	0, cr0, [r8], #-0
1ff812dc:	0076cc7c 	rsbseq	ip, r6, ip, ror ip
1ff812e0:	7c6060e0 	stclvc	0, cr6, [r0], #-896	; 0xfffffc80
1ff812e4:	007c6666 	rsbseq	r6, ip, r6, ror #12
1ff812e8:	c67c0000 	ldrbtgt	r0, [ip], -r0
1ff812ec:	007cc6c0 	rsbseq	ip, ip, r0, asr #13
1ff812f0:	7c0c0c1c 	stcvc	12, cr0, [ip], {28}
1ff812f4:	0076cccc 	rsbseq	ip, r6, ip, asr #25
1ff812f8:	c67c0000 	ldrbtgt	r0, [ip], -r0
1ff812fc:	007cc0fe 	ldrshteq	ip, [ip], #-14
1ff81300:	7830361c 	ldmdavc	r0!, {r2, r3, r4, r9, sl, ip, sp}
1ff81304:	00783030 	rsbseq	r3, r8, r0, lsr r0
1ff81308:	cc760000 	ldclgt	0, cr0, [r6], #-0
1ff8130c:	780c7ccc 	stmdavc	ip, {r2, r3, r6, r7, sl, fp, ip, sp, lr}
1ff81310:	766c60e0 	strbtvc	r6, [ip], -r0, ror #1
1ff81314:	00e66666 	rsceq	r6, r6, r6, ror #12
1ff81318:	18380018 	ldmdane	r8!, {r3, r4}
1ff8131c:	003c1818 	eorseq	r1, ip, r8, lsl r8
1ff81320:	1c000c00 	stcne	12, cr0, [r0], {-0}
1ff81324:	78cc0c0c 	stmiavc	ip, {r2, r3, sl, fp}^
1ff81328:	6c6660e0 	stclvs	0, cr6, [r6], #-896	; 0xfffffc80
1ff8132c:	00e66c78 	rsceq	r6, r6, r8, ror ip
1ff81330:	18181838 	ldmdane	r8, {r3, r4, r5, fp, ip}
1ff81334:	003c1818 	eorseq	r1, ip, r8, lsl r8
1ff81338:	fecc0000 	cdp2	0, 12, cr0, cr12, cr0, {0}
1ff8133c:	00d6d6d6 	ldrsbeq	sp, [r6], #102	; 0x66
1ff81340:	66dc0000 	ldrbvs	r0, [ip], r0
1ff81344:	00666666 	rsbeq	r6, r6, r6, ror #12
1ff81348:	c67c0000 	ldrbtgt	r0, [ip], -r0
1ff8134c:	007cc6c6 	rsbseq	ip, ip, r6, asr #13
1ff81350:	66dc0000 	ldrbvs	r0, [ip], r0
1ff81354:	f0607c66 			; <UNDEFINED> instruction: 0xf0607c66
1ff81358:	cc7c0000 	ldclgt	0, cr0, [ip], #-0
1ff8135c:	1e0c7ccc 	cdpne	12, 0, cr7, cr12, cr12, {6}
1ff81360:	76de0000 	ldrbvc	r0, [lr], r0
1ff81364:	00f06060 	rscseq	r6, r0, r0, rrx
1ff81368:	c07c0000 	rsbsgt	r0, ip, r0
1ff8136c:	007c067c 	rsbseq	r0, ip, ip, ror r6
1ff81370:	30fc3010 	rscscc	r3, ip, r0, lsl r0
1ff81374:	00183430 	andseq	r3, r8, r0, lsr r4
1ff81378:	cccc0000 	stclgt	0, cr0, [ip], {0}
1ff8137c:	0076cccc 	rsbseq	ip, r6, ip, asr #25
1ff81380:	c6c60000 	strbgt	r0, [r6], r0
1ff81384:	0010386c 	andseq	r3, r0, ip, ror #16
1ff81388:	d6c60000 	strble	r0, [r6], r0
1ff8138c:	006cfed6 	ldrdeq	pc, [ip], #-230	; 0xffffff1a	; <UNPREDICTABLE>
1ff81390:	6cc60000 	stclvs	0, cr0, [r6], {0}
1ff81394:	00c66c38 	sbceq	r6, r6, r8, lsr ip
1ff81398:	cccc0000 	stclgt	0, cr0, [ip], {0}
1ff8139c:	f80c7ccc 			; <UNDEFINED> instruction: 0xf80c7ccc
1ff813a0:	98fc0000 	ldmls	ip!, {}^	; <UNPREDICTABLE>
1ff813a4:	00fc6430 	rscseq	r6, ip, r0, lsr r4
1ff813a8:	3018180e 	andscc	r1, r8, lr, lsl #16
1ff813ac:	000e1818 	andeq	r1, lr, r8, lsl r8
1ff813b0:	00181818 	andseq	r1, r8, r8, lsl r8
1ff813b4:	00181818 	andseq	r1, r8, r8, lsl r8
1ff813b8:	183030e0 	ldmdane	r0!, {r5, r6, r7, ip, sp}
1ff813bc:	00e03030 	rsceq	r3, r0, r0, lsr r0
1ff813c0:	0000dc76 	andeq	sp, r0, r6, ror ip
1ff813c4:	00000000 	andeq	r0, r0, r0
1ff813c8:	6c381000 	ldcvs	0, cr1, [r8], #-0
1ff813cc:	00fec6c6 	rscseq	ip, lr, r6, asr #13
1ff813d0:	c0c0c67c 	sbcgt	ip, r0, ip, ror r6
1ff813d4:	70187cc6 	andsvc	r7, r8, r6, asr #25
1ff813d8:	cccc00cc 	stclgt	0, cr0, [ip], {204}	; 0xcc
1ff813dc:	0076cccc 	rsbseq	ip, r6, ip, asr #25
1ff813e0:	c67c100e 	ldrbtgt	r1, [ip], -lr
1ff813e4:	007cc0fe 	ldrshteq	ip, [ip], #-14
1ff813e8:	0c38827c 	lfmeq	f0, 1, [r8], #-496	; 0xfffffe10
1ff813ec:	0076cc7c 	rsbseq	ip, r6, ip, ror ip
1ff813f0:	0c7800cc 	ldcleq	0, cr0, [r8], #-816	; 0xfffffcd0
1ff813f4:	0076cc7c 	rsbseq	ip, r6, ip, ror ip
1ff813f8:	0c7810e0 	ldcleq	0, cr1, [r8], #-896	; 0xfffffc80
1ff813fc:	0076cc7c 	rsbseq	ip, r6, ip, ror ip
1ff81400:	0c783030 	ldcleq	0, cr3, [r8], #-192	; 0xffffff40
1ff81404:	0076cc7c 	rsbseq	ip, r6, ip, ror ip
1ff81408:	c07c0000 	rsbsgt	r0, ip, r0
1ff8140c:	70187cc0 	andsvc	r7, r8, r0, asr #25
1ff81410:	c67c827c 			; <UNDEFINED> instruction: 0xc67c827c
1ff81414:	007cc0fe 	ldrshteq	ip, [ip], #-14
1ff81418:	c67c00c6 	ldrbtgt	r0, [ip], -r6, asr #1
1ff8141c:	007cc0fe 	ldrshteq	ip, [ip], #-14
1ff81420:	c67c10e0 	ldrbtgt	r1, [ip], -r0, ror #1
1ff81424:	007cc0fe 	ldrshteq	ip, [ip], #-14
1ff81428:	18380066 	ldmdane	r8!, {r1, r2, r5, r6}
1ff8142c:	003c1818 	eorseq	r1, ip, r8, lsl r8
1ff81430:	1838827c 	ldmdane	r8!, {r2, r3, r4, r5, r6, r9, pc}
1ff81434:	003c1818 	eorseq	r1, ip, r8, lsl r8
1ff81438:	183810e0 	ldmdane	r8!, {r5, r6, r7, ip}
1ff8143c:	003c1818 	eorseq	r1, ip, r8, lsl r8
1ff81440:	c67c00c6 	ldrbtgt	r0, [ip], -r6, asr #1
1ff81444:	00c6c6fe 	strdeq	ip, [r6], #110	; 0x6e
1ff81448:	c67c3838 			; <UNDEFINED> instruction: 0xc67c3838
1ff8144c:	00c6c6fe 	strdeq	ip, [r6], #110	; 0x6e
1ff81450:	60fe100e 	rscsvs	r1, lr, lr
1ff81454:	00fe6078 	rscseq	r6, lr, r8, ror r0
1ff81458:	127c0000 	rsbsne	r0, ip, #0
1ff8145c:	007ed07e 	rsbseq	sp, lr, lr, ror r0
1ff81460:	fec8c87e 	mcr2	8, 6, ip, cr8, cr14, {3}
1ff81464:	00cec8c8 	sbceq	ip, lr, r8, asr #17
1ff81468:	c67c827c 			; <UNDEFINED> instruction: 0xc67c827c
1ff8146c:	007cc6c6 	rsbseq	ip, ip, r6, asr #13
1ff81470:	c67c00c6 	ldrbtgt	r0, [ip], -r6, asr #1
1ff81474:	007cc6c6 	rsbseq	ip, ip, r6, asr #13
1ff81478:	c67c10e0 	ldrbtgt	r1, [ip], -r0, ror #1
1ff8147c:	007cc6c6 	rsbseq	ip, ip, r6, asr #13
1ff81480:	cccc827c 	sfmgt	f0, 3, [ip], {124}	; 0x7c
1ff81484:	0076cccc 	rsbseq	ip, r6, ip, asr #25
1ff81488:	cccc10e0 	stclgt	0, cr1, [ip], {224}	; 0xe0
1ff8148c:	0076cccc 	rsbseq	ip, r6, ip, asr #25
1ff81490:	cccc00cc 	stclgt	0, cr0, [ip], {204}	; 0xcc
1ff81494:	f80c7ccc 			; <UNDEFINED> instruction: 0xf80c7ccc
1ff81498:	c6c67cc6 	strbgt	r7, [r6], r6, asr #25
1ff8149c:	007cc6c6 	rsbseq	ip, ip, r6, asr #13
1ff814a0:	c6c600c6 	strbgt	r0, [r6], r6, asr #1
1ff814a4:	007cc6c6 	rsbseq	ip, ip, r6, asr #13
1ff814a8:	d0d67c18 	sbcsle	r7, r6, r8, lsl ip
1ff814ac:	00187cd6 			; <UNDEFINED> instruction: 0x00187cd6
1ff814b0:	f0606c38 			; <UNDEFINED> instruction: 0xf0606c38
1ff814b4:	00dcf260 	sbcseq	pc, ip, r0, ror #4
1ff814b8:	7e183c66 	cdpvc	12, 1, cr3, cr8, cr6, {3}
1ff814bc:	00187e18 	andseq	r7, r8, r8, lsl lr
1ff814c0:	c4f8ccf8 	ldrbtgt	ip, [r8], #3320	; 0xcf8
1ff814c4:	06ccdecc 	strbeq	sp, [ip], ip, asr #29
1ff814c8:	3c181b0e 			; <UNDEFINED> instruction: 0x3c181b0e
1ff814cc:	70d81818 	sbcsvc	r1, r8, r8, lsl r8
1ff814d0:	0c78100e 	ldcleq	0, cr1, [r8], #-56	; 0xffffffc8
1ff814d4:	0076cc7c 	rsbseq	ip, r6, ip, ror ip
1ff814d8:	1838100e 	ldmdane	r8!, {r1, r2, r3, ip}
1ff814dc:	003c1818 	eorseq	r1, ip, r8, lsl r8
1ff814e0:	c67c100e 	ldrbtgt	r1, [ip], -lr
1ff814e4:	007cc6c6 	rsbseq	ip, ip, r6, asr #13
1ff814e8:	cccc100e 	stclgt	0, cr1, [ip], {14}
1ff814ec:	0076cccc 	rsbseq	ip, r6, ip, asr #25
1ff814f0:	66dc9866 	ldrbvs	r9, [ip], r6, ror #16
1ff814f4:	00666666 	rsbeq	r6, r6, r6, ror #12
1ff814f8:	f6e69866 			; <UNDEFINED> instruction: 0xf6e69866
1ff814fc:	00c6cede 	ldrdeq	ip, [r6], #238	; 0xee
1ff81500:	343c0c38 	ldrtcc	r0, [ip], #-3128	; 0xfffff3c8
1ff81504:	00007e00 	andeq	r7, r0, r0, lsl #28
1ff81508:	386c6c38 	stmdacc	ip!, {r3, r4, r5, sl, fp, sp, lr}^
1ff8150c:	00007c00 	andeq	r7, r0, r0, lsl #24
1ff81510:	60300030 	eorsvs	r0, r0, r0, lsr r0
1ff81514:	007cc6c6 	rsbseq	ip, ip, r6, asr #13
1ff81518:	fc000000 	stc2	0, cr0, [r0], {-0}
1ff8151c:	0000c0c0 	andeq	ip, r0, r0, asr #1
1ff81520:	fc000000 	stc2	0, cr0, [r0], {-0}
1ff81524:	00000c0c 	andeq	r0, r0, ip, lsl #24
1ff81528:	fed0c8c0 	vcmla.f32	q14, q8, d0[0], #90
1ff8152c:	001e8c46 	andseq	r8, lr, r6, asr #24
1ff81530:	ecd0c8c0 	ldcl	8, cr12, [r0], {192}	; 0xc0
1ff81534:	000cbe5c 	andeq	fp, ip, ip, asr lr
1ff81538:	18180018 	ldmdane	r8, {r3, r4}
1ff8153c:	00183c3c 	andseq	r3, r8, ip, lsr ip
1ff81540:	d86c3600 	stmdale	ip!, {r9, sl, ip, sp}^
1ff81544:	0000366c 	andeq	r3, r0, ip, ror #12
1ff81548:	366cd800 	strbtcc	sp, [ip], -r0, lsl #16
1ff8154c:	0000d86c 	andeq	sp, r0, ip, ror #16
1ff81550:	88228822 	stmdahi	r2!, {r1, r5, fp, pc}
1ff81554:	88228822 	stmdahi	r2!, {r1, r5, fp, pc}
1ff81558:	aa55aa55 	bge	214ebeb4 <data_abort_handler+0x14ebee4>
1ff8155c:	aa55aa55 	bge	214ebeb8 <data_abort_handler+0x14ebee8>
1ff81560:	eedb77db 	mrc	7, 6, r7, cr11, cr11, {6}
1ff81564:	eedb77db 	mrc	7, 6, r7, cr11, cr11, {6}
1ff81568:	18181818 	ldmdane	r8, {r3, r4, fp, ip}
1ff8156c:	18181818 	ldmdane	r8, {r3, r4, fp, ip}
1ff81570:	18181818 	ldmdane	r8, {r3, r4, fp, ip}
1ff81574:	181818f8 	ldmdane	r8, {r3, r4, r5, r6, r7, fp, ip}
1ff81578:	18f81818 	ldmne	r8!, {r3, r4, fp, ip}^
1ff8157c:	181818f8 	ldmdane	r8, {r3, r4, r5, r6, r7, fp, ip}
1ff81580:	36363636 			; <UNDEFINED> instruction: 0x36363636
1ff81584:	363636f6 			; <UNDEFINED> instruction: 0x363636f6
1ff81588:	00000000 	andeq	r0, r0, r0
1ff8158c:	363636fe 			; <UNDEFINED> instruction: 0x363636fe
1ff81590:	18f80000 	ldmne	r8!, {}^	; <UNPREDICTABLE>
1ff81594:	181818f8 	ldmdane	r8, {r3, r4, r5, r6, r7, fp, ip}
1ff81598:	06f63636 			; <UNDEFINED> instruction: 0x06f63636
1ff8159c:	363636f6 			; <UNDEFINED> instruction: 0x363636f6
1ff815a0:	36363636 			; <UNDEFINED> instruction: 0x36363636
1ff815a4:	36363636 			; <UNDEFINED> instruction: 0x36363636
1ff815a8:	06fe0000 	ldrbteq	r0, [lr], r0
1ff815ac:	363636f6 			; <UNDEFINED> instruction: 0x363636f6
1ff815b0:	06f63636 			; <UNDEFINED> instruction: 0x06f63636
1ff815b4:	000000fe 	strdeq	r0, [r0], -lr
1ff815b8:	36363636 			; <UNDEFINED> instruction: 0x36363636
1ff815bc:	000000fe 	strdeq	r0, [r0], -lr
1ff815c0:	18f81818 	ldmne	r8!, {r3, r4, fp, ip}^
1ff815c4:	000000f8 	strdeq	r0, [r0], -r8
1ff815c8:	00000000 	andeq	r0, r0, r0
1ff815cc:	181818f8 	ldmdane	r8, {r3, r4, r5, r6, r7, fp, ip}
1ff815d0:	18181818 	ldmdane	r8, {r3, r4, fp, ip}
1ff815d4:	0000001f 	andeq	r0, r0, pc, lsl r0
1ff815d8:	18181818 	ldmdane	r8, {r3, r4, fp, ip}
1ff815dc:	000000ff 	strdeq	r0, [r0], -pc	; <UNPREDICTABLE>
1ff815e0:	00000000 	andeq	r0, r0, r0
1ff815e4:	181818ff 	ldmdane	r8, {r0, r1, r2, r3, r4, r5, r6, r7, fp, ip}
1ff815e8:	18181818 	ldmdane	r8, {r3, r4, fp, ip}
1ff815ec:	1818181f 	ldmdane	r8, {r0, r1, r2, r3, r4, fp, ip}
1ff815f0:	00000000 	andeq	r0, r0, r0
1ff815f4:	000000ff 	strdeq	r0, [r0], -pc	; <UNPREDICTABLE>
1ff815f8:	18181818 	ldmdane	r8, {r3, r4, fp, ip}
1ff815fc:	181818ff 	ldmdane	r8, {r0, r1, r2, r3, r4, r5, r6, r7, fp, ip}
1ff81600:	181f1818 	ldmdane	pc, {r3, r4, fp, ip}	; <UNPREDICTABLE>
1ff81604:	1818181f 	ldmdane	r8, {r0, r1, r2, r3, r4, fp, ip}
1ff81608:	36363636 			; <UNDEFINED> instruction: 0x36363636
1ff8160c:	36363637 			; <UNDEFINED> instruction: 0x36363637
1ff81610:	30373636 	eorscc	r3, r7, r6, lsr r6
1ff81614:	0000003f 	andeq	r0, r0, pc, lsr r0
1ff81618:	303f0000 	eorscc	r0, pc, r0
1ff8161c:	36363637 			; <UNDEFINED> instruction: 0x36363637
1ff81620:	00f73636 	rscseq	r3, r7, r6, lsr r6
1ff81624:	000000ff 	strdeq	r0, [r0], -pc	; <UNPREDICTABLE>
1ff81628:	00ff0000 	rscseq	r0, pc, r0
1ff8162c:	363636f7 			; <UNDEFINED> instruction: 0x363636f7
1ff81630:	30373636 	eorscc	r3, r7, r6, lsr r6
1ff81634:	36363637 			; <UNDEFINED> instruction: 0x36363637
1ff81638:	00ff0000 	rscseq	r0, pc, r0
1ff8163c:	000000ff 	strdeq	r0, [r0], -pc	; <UNPREDICTABLE>
1ff81640:	00f73636 	rscseq	r3, r7, r6, lsr r6
1ff81644:	363636f7 			; <UNDEFINED> instruction: 0x363636f7
1ff81648:	00ff1818 	rscseq	r1, pc, r8, lsl r8	; <UNPREDICTABLE>
1ff8164c:	000000ff 	strdeq	r0, [r0], -pc	; <UNPREDICTABLE>
1ff81650:	36363636 			; <UNDEFINED> instruction: 0x36363636
1ff81654:	000000ff 	strdeq	r0, [r0], -pc	; <UNPREDICTABLE>
1ff81658:	00ff0000 	rscseq	r0, pc, r0
1ff8165c:	181818ff 	ldmdane	r8, {r0, r1, r2, r3, r4, r5, r6, r7, fp, ip}
1ff81660:	00000000 	andeq	r0, r0, r0
1ff81664:	363636ff 			; <UNDEFINED> instruction: 0x363636ff
1ff81668:	36363636 			; <UNDEFINED> instruction: 0x36363636
1ff8166c:	0000003f 	andeq	r0, r0, pc, lsr r0
1ff81670:	181f1818 	ldmdane	pc, {r3, r4, fp, ip}	; <UNPREDICTABLE>
1ff81674:	0000001f 	andeq	r0, r0, pc, lsl r0
1ff81678:	181f0000 	ldmdane	pc, {}	; <UNPREDICTABLE>
1ff8167c:	1818181f 	ldmdane	r8, {r0, r1, r2, r3, r4, fp, ip}
1ff81680:	00000000 	andeq	r0, r0, r0
1ff81684:	3636363f 			; <UNDEFINED> instruction: 0x3636363f
1ff81688:	36363636 			; <UNDEFINED> instruction: 0x36363636
1ff8168c:	363636ff 			; <UNDEFINED> instruction: 0x363636ff
1ff81690:	18ff1818 	ldmne	pc!, {r3, r4, fp, ip}^	; <UNPREDICTABLE>
1ff81694:	181818ff 	ldmdane	r8, {r0, r1, r2, r3, r4, r5, r6, r7, fp, ip}
1ff81698:	18181818 	ldmdane	r8, {r3, r4, fp, ip}
1ff8169c:	000000f8 	strdeq	r0, [r0], -r8
1ff816a0:	00000000 	andeq	r0, r0, r0
1ff816a4:	1818181f 	ldmdane	r8, {r0, r1, r2, r3, r4, fp, ip}
1ff816a8:	ffffffff 			; <UNDEFINED> instruction: 0xffffffff
1ff816ac:	ffffffff 			; <UNDEFINED> instruction: 0xffffffff
1ff816b0:	00000000 	andeq	r0, r0, r0
1ff816b4:	ffffffff 			; <UNDEFINED> instruction: 0xffffffff
1ff816b8:	f0f0f0f0 			; <UNDEFINED> instruction: 0xf0f0f0f0
1ff816bc:	f0f0f0f0 			; <UNDEFINED> instruction: 0xf0f0f0f0
1ff816c0:	0f0f0f0f 	svceq	0x000f0f0f
1ff816c4:	0f0f0f0f 	svceq	0x000f0f0f
1ff816c8:	ffffffff 			; <UNDEFINED> instruction: 0xffffffff
1ff816cc:	00000000 	andeq	r0, r0, r0
1ff816d0:	cc740000 	ldclgt	0, cr0, [r4], #-0
1ff816d4:	0076dcc8 	rsbseq	sp, r6, r8, asr #25
1ff816d8:	ccd8cc78 	ldclgt	12, cr12, [r8], {120}	; 0x78
1ff816dc:	40dcc6c6 	sbcsmi	ip, ip, r6, asr #13
1ff816e0:	606062fe 	strdvs	r6, [r0], #-46	; 0xffffffd2	; <UNPREDICTABLE>
1ff816e4:	00f06060 	rscseq	r6, r0, r0, rrx
1ff816e8:	ec7e0200 	lfm	f0, 2, [lr], #-0
1ff816ec:	00486c6c 	subeq	r6, r8, ip, ror #24
1ff816f0:	183062fe 	ldmdane	r0!, {r1, r2, r3, r4, r5, r6, r7, r9, sp, lr}
1ff816f4:	00fe6230 	rscseq	r6, lr, r0, lsr r2
1ff816f8:	d07e0000 	rsbsle	r0, lr, r0
1ff816fc:	0070c8c8 	rsbseq	ip, r0, r8, asr #17
1ff81700:	cccc0000 	stclgt	0, cr0, [ip], {0}
1ff81704:	80f8cccc 	rscshi	ip, r8, ip, asr #25
1ff81708:	d87e0000 	ldmdale	lr!, {}^	; <UNPREDICTABLE>
1ff8170c:	00101818 	andseq	r1, r0, r8, lsl r8
1ff81710:	d67c1038 			; <UNDEFINED> instruction: 0xd67c1038
1ff81714:	38107cd6 	ldmdacc	r0, {r1, r2, r4, r6, r7, sl, fp, ip, sp, lr}
1ff81718:	fec6c67c 	mcr2	6, 6, ip, cr6, cr12, {3}
1ff8171c:	007cc6c6 	rsbseq	ip, ip, r6, asr #13
1ff81720:	c6c6c67c 			; <UNDEFINED> instruction: 0xc6c6c67c
1ff81724:	00ee286c 	rsceq	r2, lr, ip, ror #16
1ff81728:	7c18223c 	lfmvc	f2, 4, [r8], {60}	; 0x3c
1ff8172c:	0078cccc 	rsbseq	ip, r8, ip, asr #25
1ff81730:	99660000 	stmdbls	r6!, {}^	; <UNPREDICTABLE>
1ff81734:	00006699 	muleq	r0, r9, r6
1ff81738:	9e7c0600 	cdpls	6, 7, cr0, cr12, cr0, {0}
1ff8173c:	00c07cf2 	strdeq	r7, [r0], #194	; 0xc2
1ff81740:	c07c0000 	rsbsgt	r0, ip, r0
1ff81744:	007cc0f8 	ldrshteq	ip, [ip], #-8
1ff81748:	c6c67c00 	strbgt	r7, [r6], r0, lsl #24
1ff8174c:	00c6c6c6 	sbceq	ip, r6, r6, asr #13
1ff81750:	fe00fe00 	cdp2	14, 0, cr15, cr0, cr0, {0}
1ff81754:	0000fe00 	andeq	pc, r0, r0, lsl #28
1ff81758:	187e1818 	ldmdane	lr!, {r3, r4, fp, ip}^
1ff8175c:	007e0018 	rsbseq	r0, lr, r8, lsl r0
1ff81760:	180c1830 	stmdane	ip, {r4, r5, fp, ip}
1ff81764:	007c0030 	rsbseq	r0, ip, r0, lsr r0
1ff81768:	30603018 	rsbcc	r3, r0, r8, lsl r0
1ff8176c:	007c0018 	rsbseq	r0, ip, r8, lsl r0
1ff81770:	181b1b0e 	ldmdane	fp, {r1, r2, r3, r8, r9, fp, ip}
1ff81774:	18181818 	ldmdane	r8, {r3, r4, fp, ip}
1ff81778:	18181818 	ldmdane	r8, {r3, r4, fp, ip}
1ff8177c:	70d8d818 	sbcsvc	sp, r8, r8, lsl r8
1ff81780:	7e001800 	cdpvc	8, 0, cr1, cr0, cr0, {0}
1ff81784:	00001800 	andeq	r1, r0, r0, lsl #16
1ff81788:	00dc7600 	sbcseq	r7, ip, r0, lsl #12
1ff8178c:	0000dc76 	andeq	sp, r0, r6, ror ip
1ff81790:	00386c38 	eorseq	r6, r8, r8, lsr ip
1ff81794:	00000000 	andeq	r0, r0, r0
1ff81798:	18000000 	stmdane	r0, {}	; <UNPREDICTABLE>
1ff8179c:	00000018 	andeq	r0, r0, r8, lsl r0
1ff817a0:	00000000 	andeq	r0, r0, r0
1ff817a4:	00000018 	andeq	r0, r0, r8, lsl r0
1ff817a8:	0c0c0c0f 	stceq	12, cr0, [ip], {15}
1ff817ac:	003c6cec 	eorseq	r6, ip, ip, ror #25
1ff817b0:	6c6c6cd8 	stclvs	12, cr6, [ip], #-864	; 0xfffffca0
1ff817b4:	00000000 	andeq	r0, r0, r0
1ff817b8:	f0c030f0 			; <UNDEFINED> instruction: 0xf0c030f0
1ff817bc:	00000000 	andeq	r0, r0, r0
1ff817c0:	3c3c0000 	ldccc	0, cr0, [ip], #-0
1ff817c4:	00003c3c 	andeq	r3, r0, ip, lsr ip
	...
1ff817d0:	62616c73 	rsbvs	r6, r1, #29440	; 0x7300
1ff817d4:	6b6f203a 	blvs	21b498c4 <data_abort_handler+0x1b498f4>
1ff817d8:	72657600 	rsbvc	r7, r5, #0, 12
1ff817dc:	65736f62 	ldrbvs	r6, [r3, #-3938]!	; 0xfffff09e
1ff817e0:	6425203a 	strtvs	r2, [r5], #-58	; 0xffffffc6
1ff817e4:	6c6c6120 	stfvse	f6, [ip], #-128	; 0xffffff80
1ff817e8:	7461636f 	strbtvc	r6, [r1], #-879	; 0xfffffc91
1ff817ec:	656c6261 	strbvs	r6, [ip, #-609]!	; 0xfffffd9f
1ff817f0:	6a626f20 	bvs	2181d478 <data_abort_handler+0x181d4a8>
1ff817f4:	73746365 	cmnvc	r4, #-1811939327	; 0x94000001
1ff817f8:	20666f20 	rsbcs	r6, r6, r0, lsr #30
1ff817fc:	657a6973 	ldrbvs	r6, [sl, #-2419]!	; 0xfffff68d
1ff81800:	00642520 	rsbeq	r2, r4, r0, lsr #10
1ff81804:	66657250 			; <UNDEFINED> instruction: 0x66657250
1ff81808:	68637465 	stmdavs	r3!, {r0, r2, r5, r6, sl, ip, sp, lr}^
1ff8180c:	6f626120 	svcvs	0x00626120
1ff81810:	00217472 	eoreq	r7, r1, r2, ror r4
1ff81814:	61746144 	cmnvs	r4, r4, asr #2
1ff81818:	6f626120 	svcvs	0x00626120
1ff8181c:	00217472 	eoreq	r7, r1, r2, ror r4
1ff81820:	65646e55 	strbvs	r6, [r4, #-3669]!	; 0xfffff1ab
1ff81824:	656e6966 	strbvs	r6, [lr, #-2406]!	; 0xfffff69a
1ff81828:	6e692064 	cdpvs	0, 6, cr2, cr9, cr4, {3}
1ff8182c:	75727473 	ldrbvc	r7, [r2, #-1139]!	; 0xfffffb8d
1ff81830:	6f697463 	svcvs	0x00697463
1ff81834:	4700216e 	strmi	r2, [r0, -lr, ror #2]
1ff81838:	72656e65 	rsbvc	r6, r5, #1616	; 0x650
1ff8183c:	6e697461 	cdpvs	4, 6, cr7, cr9, cr1, {3}
1ff81840:	55232067 	strpl	r2, [r3, #-103]!	; 0xffffff99
1ff81844:	2e2e2e44 	cdpcs	14, 2, cr2, cr14, cr4, {2}
1ff81848:	74664100 	strbtvc	r4, [r6], #-256	; 0xffffff00
1ff8184c:	23207265 			; <UNDEFINED> instruction: 0x23207265
1ff81850:	28204455 	stmdacs	r0!, {r0, r2, r4, r6, sl, lr}
1ff81854:	0000293f 	andeq	r2, r0, pc, lsr r9

Disassembly of section ARM.exidx:

1ff81858 <ARM.exidx>:
1ff81858:	7fffe7a8 	svcvc	0x00ffe7a8
1ff8185c:	00000001 	andeq	r0, r0, r1
1ff81860:	0007e788 	andeq	lr, r7, r8, lsl #15
1ff81864:	00000001 	andeq	r0, r0, r1

Disassembly of section .data:

1ff81868 <x>:
1ff81868:	00000001 	andeq	r0, r0, r1

1ff8186c <y>:
1ff8186c:	00000001 	andeq	r0, r0, r1
	...

Disassembly of section .bss:

1ff81880 <slabs>:
	...

1ff868f8 <buff>:
	...

Disassembly of section .arm11_ivt:

1fffffa0 <ud_handler>:
1fffffa0:	e92d4800 	push	{fp, lr}
1fffffa4:	e1a0b00d 	mov	fp, sp
1fffffa8:	e59f0004 	ldr	r0, [pc, #4]	; 1fffffb4 <ud_handler+0x14>
1fffffac:	ebfe0342 	bl	1ff80cbc <print>
1fffffb0:	eafffffe 	b	1fffffb0 <ud_handler+0x10>
1fffffb4:	1ff81820 	svcne	0x00f81820

1fffffb8 <prefetch_abort_handler>:
1fffffb8:	e92d4800 	push	{fp, lr}
1fffffbc:	e1a0b00d 	mov	fp, sp
1fffffc0:	e59f0004 	ldr	r0, [pc, #4]	; 1fffffcc <prefetch_abort_handler+0x14>
1fffffc4:	ebfe033c 	bl	1ff80cbc <print>
1fffffc8:	eafffffe 	b	1fffffc8 <prefetch_abort_handler+0x10>
1fffffcc:	1ff81804 	svcne	0x00f81804

1fffffd0 <data_abort_handler>:
1fffffd0:	e92d4800 	push	{fp, lr}
1fffffd4:	e1a0b00d 	mov	fp, sp
1fffffd8:	e59f0004 	ldr	r0, [pc, #4]	; 1fffffe4 <data_abort_handler+0x14>
1fffffdc:	ebfe0336 	bl	1ff80cbc <print>
1fffffe0:	eafffffe 	b	1fffffe0 <data_abort_handler+0x10>
1fffffe4:	1ff81814 	svcne	0x00f81814

Disassembly of section .debug_aranges:

00000000 <.debug_aranges>:
   0:	0000001c 	andeq	r0, r0, ip, lsl r0
   4:	00000002 	andeq	r0, r0, r2
   8:	00040000 	andeq	r0, r4, r0
   c:	00000000 	andeq	r0, r0, r0
  10:	1ff80000 	svcne	0x00f80000
  14:	00000050 	andeq	r0, r0, r0, asr r0
	...
  20:	0000001c 	andeq	r0, r0, ip, lsl r0
  24:	0ee70002 	cdpeq	0, 14, cr0, cr7, cr2, {0}
  28:	00040000 	andeq	r0, r4, r0
  2c:	00000000 	andeq	r0, r0, r0
  30:	1ff80d70 	svcne	0x00f80d70
  34:	00000114 	andeq	r0, r0, r4, lsl r1
	...
  40:	0000001c 	andeq	r0, r0, ip, lsl r0
  44:	0f0d0002 	svceq	0x000d0002
  48:	00040000 	andeq	r0, r4, r0
  4c:	00000000 	andeq	r0, r0, r0
  50:	1ff80e84 	svcne	0x00f80e84
  54:	00000148 	andeq	r0, r0, r8, asr #2
	...
  60:	0000001c 	andeq	r0, r0, ip, lsl r0
  64:	0f330002 	svceq	0x00330002
  68:	00040000 	andeq	r0, r4, r0
  6c:	00000000 	andeq	r0, r0, r0
  70:	1ff80fcc 	svcne	0x00f80fcc
  74:	00000004 	andeq	r0, r0, r4
	...

Disassembly of section .debug_info:

00000000 <.debug_info>:
   0:	00000022 	andeq	r0, r0, r2, lsr #32
   4:	00000002 	andeq	r0, r0, r2
   8:	01040000 	mrseq	r0, (UNDEF: 4)
   c:	00000000 	andeq	r0, r0, r0
  10:	1ff80000 	svcne	0x00f80000
  14:	1ff80050 	svcne	0x00f80050
  18:	000000dc 	ldrdeq	r0, [r0], -ip
  1c:	0000032a 	andeq	r0, r0, sl, lsr #6
  20:	0000000c 	andeq	r0, r0, ip
  24:	02498001 	subeq	r8, r9, #1
  28:	00040000 	andeq	r0, r4, r0
  2c:	00000014 	andeq	r0, r0, r4, lsl r0
  30:	027b0104 	rsbseq	r0, fp, #4, 2
  34:	000c0000 	andeq	r0, ip, r0
  38:	000000ce 	andeq	r0, r0, lr, asr #1
  3c:	0000004f 	andeq	r0, r0, pc, asr #32
  40:	0000032a 	andeq	r0, r0, sl, lsr #6
  44:	1ff80050 	svcne	0x00f80050
  48:	0000018c 	andeq	r0, r0, ip, lsl #3
  4c:	00000702 	andeq	r0, r0, r2, lsl #14
  50:	00003700 	andeq	r3, r0, r0, lsl #14
  54:	050c0100 	streq	r0, [ip, #-256]	; 0xffffff00
  58:	f80fd003 			; <UNDEFINED> instruction: 0xf80fd003
  5c:	0044031f 	subeq	r0, r4, pc, lsl r3
  60:	50040000 	andpl	r0, r4, r0
  64:	00000000 	andeq	r0, r0, r0
  68:	49050008 	stmdbmi	r5, {r3}
  6c:	06000000 	streq	r0, [r0], -r0
  70:	00000043 	andeq	r0, r0, r3, asr #32
  74:	81070108 	tsthi	r7, r8, lsl #2
  78:	08000000 	stmdaeq	r0, {}	; <UNPREDICTABLE>
  7c:	005c0807 	subseq	r0, ip, r7, lsl #16
  80:	49090000 	stmdbmi	r9, {}	; <UNPREDICTABLE>
  84:	d1000000 	mrsle	r0, (UNDEF: 0)
  88:	02000001 	andeq	r0, r0, #1
  8c:	006c0811 	rsbeq	r0, ip, r1, lsl r8
  90:	77090000 	strvc	r0, [r9, -r0]
  94:	04000000 	streq	r0, [r0], #-0
  98:	02000002 	andeq	r0, r0, #2
  9c:	007c0a18 	rsbseq	r0, ip, r8, lsl sl
  a0:	12060000 	andne	r0, r6, #0
  a4:	07000001 	streq	r0, [r0, -r1]
  a8:	00510b04 	subseq	r0, r1, r4, lsl #22
  ac:	12030000 	andne	r0, r3, #0
  b0:	02ce0c01 	sbceq	r0, lr, #256	; 0x100
  b4:	12030000 	andne	r0, r3, #0
  b8:	00000057 	andeq	r0, r0, r7, asr r0
  bc:	0003ae0c 	andeq	sl, r3, ip, lsl #28
  c0:	b8120300 	ldmdalt	r2, {r8, r9}
  c4:	0c000000 	stceq	0, cr0, [r0], {-0}
  c8:	000002c5 	andeq	r0, r0, r5, asr #5
  cc:	00b81203 	adcseq	r1, r8, r3, lsl #4
  d0:	570c0000 	strpl	r0, [ip, -r0]
  d4:	03000000 	movweq	r0, #0
  d8:	0000b812 	andeq	fp, r0, r2, lsl r8
  dc:	7c090000 	stcvc	0, cr0, [r9], {-0}
  e0:	00000000 	andeq	r0, r0, r0
  e4:	02000000 	andeq	r0, r0, #0
  e8:	00500d17 	subseq	r0, r0, r7, lsl sp
  ec:	01481ff8 	strdeq	r1, [r8, #-248]	; 0xffffff08
  f0:	5b010000 	blpl	400f8 <__start__-0x1ff3ff08>
  f4:	00000067 	andeq	r0, r0, r7, rrx
  f8:	000e1a03 	andeq	r1, lr, r3, lsl #20
  fc:	eb000000 	bl	104 <__start__-0x1ff7fefc>
 100:	03000000 	movweq	r0, #0
 104:	00022c1a 	andeq	r2, r2, sl, lsl ip
 108:	00130e00 	andseq	r0, r3, r0, lsl #28
 10c:	010d0000 	mrseq	r0, (UNDEF: 13)
 110:	1a030000 	bne	c0118 <__start__-0x1febfee8>
 114:	000000b8 	strheq	r0, [r0], -r8
 118:	0000260e 	andeq	r2, r0, lr, lsl #12
 11c:	0002c700 	andeq	ip, r2, r0, lsl #14
 120:	b81a0300 	ldmdalt	sl, {r8, r9}
 124:	0e000000 	cdpeq	0, 0, cr0, cr0, cr0, {0}
 128:	00000039 	andeq	r0, r0, r9, lsr r0
 12c:	0000016a 	andeq	r0, r0, sl, ror #2
 130:	00b81a03 	adcseq	r1, r8, r3, lsl #20
 134:	6f0c0000 	svcvs	0x000c0000
 138:	03000002 	movweq	r0, #2
 13c:	0002451a 	andeq	r4, r2, sl, lsl r5
 140:	01d40f00 	bicseq	r0, r4, r0, lsl #30
 144:	1c030000 	stcne	0, cr0, [r3], {-0}
 148:	00000057 	andeq	r0, r0, r7, asr r0
 14c:	f8005c10 			; <UNDEFINED> instruction: 0xf8005c10
 150:	0001301f 	andeq	r3, r1, pc, lsl r0
 154:	004c1100 	subeq	r1, ip, r0, lsl #2
 158:	00570000 	subseq	r0, r7, r0
 15c:	1e030000 	cdpne	0, 0, cr0, cr3, cr0, {0}
 160:	0000023e 	andeq	r0, r0, lr, lsr r2
 164:	00007812 	andeq	r7, r0, r2, lsl r8
 168:	009e0f00 	addseq	r0, lr, r0, lsl #30
 16c:	20030000 	andcs	r0, r3, r0
 170:	0000005c 	andeq	r0, r0, ip, asr r0
 174:	00006012 	andeq	r6, r0, r2, lsl r0
 178:	006e1100 	rsbeq	r1, lr, r0, lsl #2
 17c:	02c50000 	sbceq	r0, r5, #0
 180:	21030000 	mrscs	r0, (UNDEF: 3)
 184:	0000023e 	andeq	r0, r0, lr, lsr r2
 188:	00004812 	andeq	r4, r0, r2, lsl r8
 18c:	00950f00 	addseq	r0, r5, r0, lsl #30
 190:	23030000 	movwcs	r0, #12288	; 0x3000
 194:	0000022c 	andeq	r0, r0, ip, lsr #4
 198:	00008313 	andeq	r8, r0, r3, lsl r3
 19c:	00000000 	andeq	r0, r0, r0
 1a0:	05250300 	streq	r0, [r5, #-768]!	; 0xfffffd00
 1a4:	00008b14 	andeq	r8, r0, r4, lsl fp
 1a8:	00961400 	addseq	r1, r6, r0, lsl #8
 1ac:	a1140000 	tstge	r4, r0
 1b0:	14000000 	strne	r0, [r0], #-0
 1b4:	000000ac 	andeq	r0, r0, ip, lsr #1
 1b8:	00000000 	andeq	r0, r0, r0
 1bc:	9a0b0000 	bls	2c01c4 <__start__-0x1fcbfe3c>
 1c0:	04000002 	streq	r0, [r0], #-2
 1c4:	aa0c0114 	bge	30061c <__start__-0x1fc7f9e4>
 1c8:	04000000 	streq	r0, [r0], #-0
 1cc:	00006c14 	andeq	r6, r0, r4, lsl ip
 1d0:	00590c00 	subseq	r0, r9, r0, lsl #24
 1d4:	14040000 	strne	r0, [r4], #-0
 1d8:	000000b8 	strheq	r0, [r0], -r8
 1dc:	01980d00 	orrseq	r0, r8, r0, lsl #26
 1e0:	00441ff8 	strdeq	r1, [r4], #-248	; 0xffffff08
 1e4:	5b010000 	blpl	401ec <__start__-0x1ff3fe14>
 1e8:	00000018 	andeq	r0, r0, r8, lsl r0
 1ec:	98152a03 	ldmdals	r5, {r0, r1, r9, fp, sp}
 1f0:	ac000001 	stcge	0, cr0, [r0], {1}
 1f4:	101ff801 	andsne	pc, pc, r1, lsl #16
 1f8:	03000000 	movweq	r0, #0
 1fc:	0216022c 	andseq	r0, r6, #44, 4	; 0xc0000002
 200:	01a0007d 	roreq	r0, sp, r0
 204:	00170000 	andseq	r0, r7, r0
 208:	000001ab 	andeq	r0, r0, fp, lsr #3
 20c:	01981500 	orrseq	r1, r8, r0, lsl #10
 210:	01bc0000 			; <UNDEFINED> instruction: 0x01bc0000
 214:	000c1ff8 	strdeq	r1, [ip], -r8
 218:	2d030000 	stccs	0, cr0, [r3, #-0]
 21c:	7d021602 	stcvc	6, cr1, [r2, #-8]
 220:	0001a008 	andeq	sl, r1, r8
 224:	01121800 	tsteq	r2, r0, lsl #16
 228:	01ab0000 			; <UNDEFINED> instruction: 0x01ab0000
 22c:	15000000 	strne	r0, [r0, #-0]
 230:	00000198 	muleq	r0, r8, r1
 234:	1ff801c8 	svcne	0x00f801c8
 238:	00000008 	andeq	r0, r0, r8
 23c:	16022e03 	strne	r2, [r2], -r3, lsl #28
 240:	a0047d02 	andge	r7, r4, r2, lsl #26
 244:	18000001 	stmdane	r0, {r0}
 248:	00000126 	andeq	r0, r0, r6, lsr #2
 24c:	000001ab 	andeq	r0, r0, fp, lsr #3
 250:	37090000 	strcc	r0, [r9, -r0]
 254:	09000002 	stmdbeq	r0, {r1}
 258:	02000002 	andeq	r0, r0, #2
 25c:	02fe060a 	rscseq	r0, lr, #10485760	; 0xa00000
 260:	01020000 	mrseq	r0, (UNDEF: 2)
 264:	0000b206 	andeq	fp, r0, r6, lsl #4
 268:	06040500 	streq	r0, [r4], -r0, lsl #10
 26c:	0000011f 	andeq	r0, r0, pc, lsl r1
 270:	53000108 	movwpl	r0, #264	; 0x108
 274:	04000003 	streq	r0, [r0], #-3
 278:	00013000 	andeq	r3, r1, r0
 27c:	7b010400 	blvc	41284 <__start__-0x1ff3ed7c>
 280:	0c000002 	stceq	0, cr0, [r0], {2}
 284:	0002a700 	andeq	sl, r2, r0, lsl #14
 288:	00017500 	andeq	r7, r1, r0, lsl #10
 28c:	00032a00 	andeq	r2, r3, r0, lsl #20
 290:	f801dc00 			; <UNDEFINED> instruction: 0xf801dc00
 294:	0003341f 	andeq	r3, r3, pc, lsl r4
 298:	024f0200 	subeq	r0, pc, #0, 4
 29c:	0c010000 	stceq	0, cr0, [r1], {-0}
 2a0:	00003403 	andeq	r3, r0, r3, lsl #8
 2a4:	05000400 	streq	r0, [r0, #-1024]	; 0xfffffc00
 2a8:	00000039 	andeq	r0, r0, r9, lsr r0
 2ac:	00003e06 	andeq	r3, r0, r6, lsl #28
 2b0:	011f0700 	tsteq	pc, r0, lsl #14
 2b4:	01080000 	mrseq	r0, (UNDEF: 8)
 2b8:	00025508 	andeq	r5, r2, r8, lsl #10
 2bc:	00005600 	andeq	r5, r0, r0, lsl #12
 2c0:	050a0400 	streq	r0, [sl, #-1024]	; 0xfffffc00
 2c4:	f8188003 			; <UNDEFINED> instruction: 0xf8188003
 2c8:	0062091f 	rsbeq	r0, r2, pc, lsl r9
 2cc:	d20a0000 	andle	r0, sl, #0
 2d0:	0a000000 	beq	2d8 <__start__-0x1ff7fd28>
 2d4:	036b0b00 	cmneq	fp, #0, 22
 2d8:	080c0000 	stmdaeq	ip, {}	; <UNPREDICTABLE>
 2dc:	3c0c0603 	stccc	6, cr0, [ip], {3}
 2e0:	9c000001 	stcls	0, cr0, [r0], {1}
 2e4:	03000000 	movweq	r0, #0
 2e8:	e30c0008 	movw	r0, #49160	; 0xc008
 2ec:	9c000001 	stcls	0, cr0, [r0], {1}
 2f0:	03000000 	movweq	r0, #0
 2f4:	610c0409 	tstvs	ip, r9, lsl #8
 2f8:	ae000003 	cdpge	0, 0, cr0, cr0, cr3, {0}
 2fc:	03000000 	movweq	r0, #0
 300:	5d0c080a 	stcpl	8, cr0, [ip, #-40]	; 0xffffffd8
 304:	c0000000 	andgt	r0, r0, r0
 308:	03000000 	movweq	r0, #0
 30c:	0d000c0b 	stceq	12, cr0, [r0, #-44]	; 0xffffffd4
 310:	000000a7 	andeq	r0, r0, r7, lsr #1
 314:	00000000 	andeq	r0, r0, r0
 318:	12071702 	andne	r1, r7, #524288	; 0x80000
 31c:	07000001 	streq	r0, [r0, -r1]
 320:	00b90d04 	adcseq	r0, r9, r4, lsl #26
 324:	02090000 	andeq	r0, r9, #0
 328:	0a020000 	beq	80330 <__start__-0x1feffcd0>
 32c:	0002fe07 	andeq	pc, r2, r7, lsl #28
 330:	09010200 	stmdbeq	r1, {r9}
 334:	000000cd 	andeq	r0, r0, sp, asr #1
 338:	0000d20e 	andeq	sp, r0, lr, lsl #4
 33c:	00020000 	andeq	r0, r2, r0
 340:	00009c05 	andeq	r9, r0, r5, lsl #24
 344:	00810f00 	addeq	r0, r1, r0, lsl #30
 348:	07080000 	streq	r0, [r8, -r0]
 34c:	01dc1110 	bicseq	r1, ip, r0, lsl r1
 350:	00d81ff8 	ldrsheq	r1, [r8], #248	; 0xf8
 354:	5b010000 	blpl	4035c <__start__-0x1ff3fca4>
 358:	000003a4 	andeq	r0, r0, r4, lsr #7
 35c:	65120f04 	ldrvs	r0, [r2, #-3844]	; 0xfffff0fc
 360:	fb000001 	blx	36e <__start__-0x1ff7fc92>
 364:	04000000 	streq	r0, [r0], #-0
 368:	00009c11 	andeq	r9, r0, r1, lsl ip
 36c:	020c1300 	andeq	r1, ip, #0, 6
 370:	00881ff8 	strdeq	r1, [r8], r8
 374:	3a120000 	bcc	48037c <__start__-0x1faffc84>
 378:	65000001 	strvs	r0, [r0, #-1]
 37c:	04000000 	streq	r0, [r0], #-0
 380:	0001e513 	andeq	lr, r1, r3, lsl r5
 384:	021c1300 	andseq	r1, ip, #0, 6
 388:	00781ff8 	ldrshteq	r1, [r8], #-248	; 0xffffff08
 38c:	cc120000 	ldcgt	0, cr0, [r2], {-0}
 390:	d1000001 	tstle	r0, r1
 394:	04000002 	streq	r0, [r0], #-2
 398:	0001e519 	andeq	lr, r1, r9, lsl r5
 39c:	02641300 	rsbeq	r1, r4, #0, 6
 3a0:	00301ff8 	ldrshteq	r1, [r0], -r8
 3a4:	9f120000 	svcls	0x00120000
 3a8:	cc000001 	stcgt	0, cr0, [r0], {1}
 3ac:	04000002 	streq	r0, [r0], #-2
 3b0:	0001e51b 	andeq	lr, r1, fp, lsl r5
 3b4:	00000000 	andeq	r0, r0, r0
 3b8:	00016114 	andeq	r6, r1, r4, lsl r1
 3bc:	f8022c00 			; <UNDEFINED> instruction: 0xf8022c00
 3c0:	0026141f 	eoreq	r1, r6, pc, lsl r4
 3c4:	02640000 	rsbeq	r0, r4, #0
 3c8:	26151ff8 	ssub8cs	r1, r5, r8
 3cc:	a8000000 	stmdage	r0, {}	; <UNPREDICTABLE>
 3d0:	001ff802 	andseq	pc, pc, r2, lsl #16
 3d4:	f802b416 			; <UNDEFINED> instruction: 0xf802b416
 3d8:	00004c1f 	andeq	r4, r0, pc, lsl ip
 3dc:	6c5b0100 	ldfvse	f0, [fp], {-0}
 3e0:	05000000 	streq	r0, [r0, #-0]
 3e4:	00009c08 	andeq	r9, r0, r8, lsl #24
 3e8:	ee021700 	cdp	7, 0, cr1, cr2, cr0, {0}
 3ec:	05000001 	streq	r0, [r0, #-1]
 3f0:	0001e508 	andeq	lr, r1, r8, lsl #10
 3f4:	01ea1800 	mvneq	r1, r0, lsl #16
 3f8:	025b0000 	subseq	r0, fp, #0
 3fc:	08050000 	stmdaeq	r5, {}	; <UNPREDICTABLE>
 400:	000001e5 	andeq	r0, r0, r5, ror #3
 404:	00021312 	andeq	r1, r2, r2, lsl r3
 408:	0003b200 	andeq	fp, r3, r0, lsl #4
 40c:	9c0a0500 	cfstr32ls	mvfx0, [sl], {-0}
 410:	14000000 	strne	r0, [r0], #-0
 414:	00000161 	andeq	r0, r0, r1, ror #2
 418:	1ff802d4 	svcne	0x00f802d4
 41c:	01701900 	cmneq	r0, r0, lsl #18
 420:	63040000 	movwvs	r0, #16384	; 0x4000
 424:	000001da 	ldrdeq	r0, [r0], -sl
 428:	01481a01 	cmpeq	r8, r1, lsl #20
 42c:	63040000 	movwvs	r0, #16384	; 0x4000
 430:	000001e5 	andeq	r0, r0, r5, ror #3
 434:	0002d11b 	andeq	sp, r2, fp, lsl r1
 438:	e5680400 	strb	r0, [r8, #-1024]!	; 0xfffffc00
 43c:	1c000001 	stcne	0, cr0, [r0], {1}
 440:	0000651b 	andeq	r6, r0, fp, lsl r5
 444:	e5690400 	strb	r0, [r9, #-1024]!	; 0xfffffc00
 448:	00000001 	andeq	r0, r0, r1
 44c:	01e50d00 	mvneq	r0, r0, lsl #26
 450:	00f70000 	rscseq	r0, r7, r0
 454:	16020000 	strne	r0, [r2], -r0
 458:	0000b207 	andeq	fp, r0, r7, lsl #4
 45c:	1d040500 	cfstr32ne	mvfx0, [r4, #-0]
 460:	1ff80300 	svcne	0x00f80300
 464:	00000174 	andeq	r0, r0, r4, ror r1
 468:	014e5b01 	cmpeq	lr, r1, lsl #22
 46c:	23040000 	movwcs	r0, #16384	; 0x4000
 470:	000000cd 	andeq	r0, r0, sp, asr #1
 474:	00022618 	andeq	r2, r2, r8, lsl r6
 478:	0001f300 	andeq	pc, r1, r0, lsl #6
 47c:	e5230400 	str	r0, [r3, #-1024]!	; 0xfffffc00
 480:	1e000001 	cdpne	0, 0, cr0, cr0, cr1, {0}
 484:	000000b0 	strheq	r0, [r0], -r0	; <UNPREDICTABLE>
 488:	00023912 	andeq	r3, r2, r2, lsl r9
 48c:	00006500 	andeq	r6, r0, r0, lsl #10
 490:	e5250400 	str	r0, [r5, #-1024]!	; 0xfffffc00
 494:	1e000001 	cdpne	0, 0, cr0, cr0, cr1, {0}
 498:	00000090 	muleq	r0, r0, r0
 49c:	0002ce12 	andeq	ip, r2, r2, lsl lr
 4a0:	0001f600 	andeq	pc, r1, r0, lsl #12
 4a4:	cd2d0400 	cfstrsgt	mvf0, [sp, #-0]
 4a8:	12000000 	andne	r0, r0, #0
 4ac:	00000349 	andeq	r0, r0, r9, asr #6
 4b0:	0000020e 	andeq	r0, r0, lr, lsl #4
 4b4:	01da2f04 	bicseq	r2, sl, r4, lsl #30
 4b8:	aa1f0000 	bge	7c04c0 <__start__-0x1f7bfb40>
 4bc:	10000001 	andne	r0, r0, r1
 4c0:	3c1ff804 	ldccc	8, cr15, [pc], {4}
 4c4:	04000000 	streq	r0, [r0], #-0
 4c8:	ed200d2f 	stc	13, cr0, [r0, #-188]!	; 0xffffff44
 4cc:	b6000002 	strlt	r0, [r0], -r2
 4d0:	21000001 	tstcs	r0, r1
 4d4:	0000032b 	andeq	r0, r0, fp, lsr #6
 4d8:	000001c1 	andeq	r0, r0, r1, asr #3
 4dc:	f8042413 			; <UNDEFINED> instruction: 0xf8042413
 4e0:	0000281f 	andeq	r2, r0, pc, lsl r8
 4e4:	03002100 	movweq	r2, #256	; 0x100
 4e8:	01cd0000 	biceq	r0, sp, r0
 4ec:	00000000 	andeq	r0, r0, r0
 4f0:	61140000 	tstvs	r4, r0
 4f4:	18000001 	stmdane	r0, {r0}
 4f8:	001ff804 	andseq	pc, pc, r4, lsl #16
 4fc:	0002b619 	andeq	fp, r2, r9, lsl r6
 500:	da520400 	ble	1481508 <__start__-0x1eafeaf8>
 504:	01000001 	tsteq	r0, r1
 508:	0001481a 	andeq	r4, r1, sl, lsl r8
 50c:	e5520400 	ldrb	r0, [r2, #-1024]	; 0xfffffc00
 510:	1b000001 	blne	51c <__start__-0x1ff7fae4>
 514:	000002d1 	ldrdeq	r0, [r0], -r1
 518:	01e55704 	mvneq	r5, r4, lsl #14
 51c:	1b1c0000 	blne	700524 <__start__-0x1f87fadc>
 520:	00000065 	andeq	r0, r0, r5, rrx
 524:	01e55804 	mvneq	r5, r4, lsl #16
 528:	00000000 	andeq	r0, r0, r0
 52c:	f8047411 			; <UNDEFINED> instruction: 0xf8047411
 530:	00009c1f 	andeq	r9, r0, pc, lsl ip
 534:	245b0100 	ldrbcs	r0, [fp], #-256	; 0xffffff00
 538:	04000001 	streq	r0, [r0], #-1
 53c:	0367183e 	cmneq	r7, #4063232	; 0x3e0000
 540:	02180000 	andseq	r0, r8, #0
 544:	3e040000 	cdpcc	0, 0, cr0, cr4, cr0, {0}
 548:	000000cd 	andeq	r0, r0, sp, asr #1
 54c:	00038518 	andeq	r8, r3, r8, lsl r5
 550:	0001f300 	andeq	pc, r1, r0, lsl #6
 554:	e53e0400 	ldr	r0, [lr, #-1024]!	; 0xfffffc00
 558:	13000001 	movwne	r0, #1
 55c:	1ff804ac 	svcne	0x00f804ac
 560:	0000005c 	andeq	r0, r0, ip, asr r0
 564:	0003b612 	andeq	fp, r3, r2, lsl r6
 568:	00006500 	andeq	r6, r0, r0, lsl #10
 56c:	e5430400 	strb	r0, [r3, #-1024]	; 0xfffffc00
 570:	1e000001 	cdpne	0, 0, cr0, cr0, cr1, {0}
 574:	000000d0 	ldrdeq	r0, [r0], -r0	; <UNPREDICTABLE>
 578:	0003a312 	andeq	sl, r3, r2, lsl r3
 57c:	00020e00 	andeq	r0, r2, r0, lsl #28
 580:	da480400 	ble	1201588 <__start__-0x1ed7ea78>
 584:	1f000001 	svcne	0x00000001
 588:	00000289 	andeq	r0, r0, r9, lsl #5
 58c:	1ff804d0 	svcne	0x00f804d0
 590:	00000038 	andeq	r0, r0, r8, lsr r0
 594:	200d4804 	andcs	r4, sp, r4, lsl #16
 598:	000003c9 	andeq	r0, r0, r9, asr #7
 59c:	00000295 	muleq	r0, r5, r2
 5a0:	0003fc21 	andeq	pc, r3, r1, lsr #24
 5a4:	0002a000 	andeq	sl, r2, r0
 5a8:	04e41300 	strbteq	r1, [r4], #768	; 0x300
 5ac:	00241ff8 	strdeq	r1, [r4], -r8	; <UNPREDICTABLE>
 5b0:	dc210000 	stcle	0, cr0, [r1], #-0
 5b4:	ac000003 	stcge	0, cr0, [r0], {3}
 5b8:	00000002 	andeq	r0, r0, r2
 5bc:	14000000 	strne	r0, [r0], #-0
 5c0:	00000161 	andeq	r0, r0, r1, ror #2
 5c4:	1ff804d8 	svcne	0x00f804d8
 5c8:	00c70000 	sbceq	r0, r7, r0
 5cc:	00040000 	andeq	r0, r4, r0
 5d0:	000002ce 	andeq	r0, r0, lr, asr #5
 5d4:	027b0104 	rsbseq	r0, fp, #4, 2
 5d8:	000c0000 	andeq	r0, ip, r0
 5dc:	0000031d 	andeq	r0, r0, sp, lsl r3
 5e0:	000003c3 	andeq	r0, r0, r3, asr #7
 5e4:	0000032a 	andeq	r0, r0, sl, lsr #6
 5e8:	00000000 	andeq	r0, r0, r0
 5ec:	000000f0 	strdeq	r0, [r0], -r0	; <UNPREDICTABLE>
 5f0:	00024f02 	andeq	r4, r2, r2, lsl #30
 5f4:	030c0100 	movweq	r0, #49408	; 0xc100
 5f8:	00000034 	andeq	r0, r0, r4, lsr r0
 5fc:	39050004 	stmdbcc	r5, {r2}
 600:	06000000 	streq	r0, [r0], -r0
 604:	0000003e 	andeq	r0, r0, lr, lsr r0
 608:	00011f07 	andeq	r1, r1, r7, lsl #30
 60c:	08010800 	stmdaeq	r1, {fp}
 610:	000003a4 	andeq	r0, r0, r4, lsr #7
 614:	a0090e02 	andge	r0, r9, r2, lsl #28
 618:	181fffff 	ldmdane	pc, {r0, r1, r2, r3, r4, r5, r6, r7, r8, r9, sl, fp, ip, sp, lr, pc}	; <UNPREDICTABLE>
 61c:	01000000 	mrseq	r0, (UNDEF: 0)
 620:	0002645b 	andeq	r6, r2, fp, asr r4
 624:	0a060300 	beq	18122c <__start__-0x1fdfedd4>
 628:	00000026 	andeq	r0, r0, r6, lsr #32
 62c:	1fffffb0 	svcne	0x00ffffb0
 630:	ffb80900 			; <UNDEFINED> instruction: 0xffb80900
 634:	00181fff 			; <UNDEFINED> instruction: 0x00181fff
 638:	5b010000 	blpl	40640 <__start__-0x1ff3f9c0>
 63c:	000002e2 	andeq	r0, r0, r2, ror #5
 640:	260a0e03 	strcs	r0, [sl], -r3, lsl #28
 644:	c8000000 	stmdagt	r0, {}	; <UNPREDICTABLE>
 648:	001fffff 			; <UNDEFINED> instruction: 0x001fffff
 64c:	ffffd009 			; <UNDEFINED> instruction: 0xffffd009
 650:	0000181f 	andeq	r1, r0, pc, lsl r8
 654:	b65b0100 	ldrblt	r0, [fp], -r0, lsl #2
 658:	03000000 	movweq	r0, #0
 65c:	00260a16 	eoreq	r0, r6, r6, lsl sl
 660:	ffe00000 			; <UNDEFINED> instruction: 0xffe00000
 664:	09001fff 	stmdbeq	r0, {r0, r1, r2, r3, r4, r5, r6, r7, r8, r9, sl, fp, ip}
 668:	1ff80510 	svcne	0x00f80510
 66c:	0000002c 	andeq	r0, r0, ip, lsr #32
 670:	03045b01 	movweq	r5, #19201	; 0x4b01
 674:	1f030000 	svcne	0x00030000
 678:	0000450a 	andeq	r4, r0, sl, lsl #10
 67c:	f8051c00 			; <UNDEFINED> instruction: 0xf8051c00
 680:	00260a1f 	eoreq	r0, r6, pc, lsl sl
 684:	05240000 	streq	r0, [r4, #-0]!
 688:	260a1ff8 			; <UNDEFINED> instruction: 0x260a1ff8
 68c:	30000000 	andcc	r0, r0, r0
 690:	001ff805 	andseq	pc, pc, r5, lsl #16
 694:	0006d700 	andeq	sp, r6, r0, lsl #14
 698:	4c000400 	cfstrsmi	mvf0, [r0], {-0}
 69c:	04000003 	streq	r0, [r0], #-3
 6a0:	00027b01 	andeq	r7, r2, r1, lsl #22
 6a4:	82000c00 	andhi	r0, r0, #0, 24
 6a8:	6a000003 	bvs	6bc <__start__-0x1ff7f944>
 6ac:	2a000004 	bcs	6c4 <__start__-0x1ff7f93c>
 6b0:	3c000003 	stccc	0, cr0, [r0], {3}
 6b4:	801ff805 	andshi	pc, pc, r5, lsl #16
 6b8:	02000007 	andeq	r0, r0, #7
 6bc:	1ff80560 	svcne	0x00f80560
 6c0:	000000a8 	andeq	r0, r0, r8, lsr #1
 6c4:	012a5b01 			; <UNDEFINED> instruction: 0x012a5b01
 6c8:	b2030000 	andlt	r0, r3, #0
 6cc:	98000003 	stmdals	r0, {r0, r1}
 6d0:	01000000 	mrseq	r0, (UNDEF: 0)
 6d4:	50010418 	andpl	r0, r1, r8, lsl r4
 6d8:	00000136 	andeq	r0, r0, r6, lsr r1
 6dc:	00045705 	andeq	r5, r4, r5, lsl #14
 6e0:	00014100 	andeq	r4, r1, r0, lsl #2
 6e4:	04990500 	ldreq	r0, [r9], #1280	; 0x500
 6e8:	014c0000 	mrseq	r0, (UNDEF: 76)
 6ec:	f6060000 			; <UNDEFINED> instruction: 0xf6060000
 6f0:	08000000 	stmdaeq	r0, {}	; <UNPREDICTABLE>
 6f4:	01000001 	tsteq	r0, r1
 6f8:	3507121a 	strcc	r1, [r7, #-538]	; 0xfffffde6
 6fc:	02000004 	andeq	r0, r0, #4
 700:	05000001 	streq	r0, [r0, #-1]
 704:	00000484 	andeq	r0, r0, r4, lsl #9
 708:	0000010d 	andeq	r0, r0, sp, lsl #2
 70c:	00f60600 	rscseq	r0, r6, r0, lsl #12
 710:	01200000 			; <UNDEFINED> instruction: 0x01200000
 714:	25010000 	strcs	r0, [r1, #-0]
 718:	04ac0706 	strteq	r0, [ip], #1798	; 0x706
 71c:	01020000 	mrseq	r0, (UNDEF: 2)
 720:	c1050000 	mrsgt	r0, (UNDEF: 5)
 724:	0d000004 	stceq	0, cr0, [r0, #-16]
 728:	00000001 	andeq	r0, r0, r1
 72c:	011f0800 	tsteq	pc, r0, lsl #16
 730:	01080000 	mrseq	r0, (UNDEF: 8)
 734:	f8053c09 			; <UNDEFINED> instruction: 0xf8053c09
 738:	00000c1f 	andeq	r0, r0, pc, lsl ip
 73c:	f95b0100 			; <UNDEFINED> instruction: 0xf95b0100
 740:	01000002 	tsteq	r0, r2
 744:	0000980d 	andeq	r9, r0, sp, lsl #16
 748:	040f0a00 	streq	r0, [pc], #-2560	; 750 <__start__-0x1ff7f8b0>
 74c:	02710000 	rsbseq	r0, r1, #0
 750:	0d010000 	stceq	0, cr0, [r1, #-0]
 754:	00000119 	andeq	r0, r0, r9, lsl r1
 758:	05480900 	strbeq	r0, [r8, #-2304]	; 0xfffff700
 75c:	00181ff8 			; <UNDEFINED> instruction: 0x00181ff8
 760:	5b010000 	blpl	40768 <__start__-0x1ff3f898>
 764:	000000c9 	andeq	r0, r0, r9, asr #1
 768:	00980f01 	addseq	r0, r8, r1, lsl #30
 76c:	220a0000 	andcs	r0, sl, #0
 770:	71000004 	tstvc	r0, r4
 774:	01000002 	tsteq	r0, r2
 778:	0001190f 	andeq	r1, r1, pc, lsl #18
 77c:	51010b00 	tstpl	r1, r0, lsl #22
 780:	00000275 	andeq	r0, r0, r5, ror r2
 784:	026d0f01 	rsbeq	r0, sp, #1, 30
 788:	0c000000 	stceq	0, cr0, [r0], {-0}
 78c:	00000159 	andeq	r0, r0, r9, asr r1
 790:	01190601 	tsteq	r9, r1, lsl #12
 794:	0d010000 	stceq	0, cr0, [r1, #-0]
 798:	000000a8 	andeq	r0, r0, r8, lsr #1
 79c:	01200601 			; <UNDEFINED> instruction: 0x01200601
 7a0:	120e0000 	andne	r0, lr, #0
 7a4:	01000002 	tsteq	r0, r2
 7a8:	00011908 	andeq	r1, r1, r8, lsl #18
 7ac:	b2080000 	andlt	r0, r8, #0
 7b0:	05000000 	streq	r0, [r0, #-0]
 7b4:	01250f04 			; <UNDEFINED> instruction: 0x01250f04
 7b8:	98100000 	ldmdals	r0, {}	; <UNPREDICTABLE>
 7bc:	11000000 	mrsne	r0, (UNDEF: 0)
 7c0:	00000394 	muleq	r0, r4, r3
 7c4:	01581601 	cmpeq	r8, r1, lsl #12
 7c8:	0d010000 	stceq	0, cr0, [r1, #-0]
 7cc:	00000101 	andeq	r0, r0, r1, lsl #2
 7d0:	01581601 	cmpeq	r8, r1, lsl #12
 7d4:	700e0000 	andvc	r0, lr, r0
 7d8:	01000000 	mrseq	r0, (UNDEF: 0)
 7dc:	00011919 	andeq	r1, r1, r9, lsl r9
 7e0:	01fa0e00 	mvnseq	r0, r0, lsl #28
 7e4:	1a010000 	bne	407ec <__start__-0x1ff3f814>
 7e8:	00000119 	andeq	r0, r0, r9, lsl r1
 7ec:	00980f00 	addseq	r0, r8, r0, lsl #30
 7f0:	08020000 	stmdaeq	r2, {}	; <UNPREDICTABLE>
 7f4:	081ff806 	ldmdaeq	pc, {r1, r2, fp, ip, sp, lr, pc}	; <UNPREDICTABLE>
 7f8:	01000001 	tsteq	r0, r1
 7fc:	0002175b 	andeq	r1, r2, fp, asr r7
 800:	04e10700 	strbteq	r0, [r1], #1792	; 0x700
 804:	021f0000 	andseq	r0, pc, #0
 808:	15070000 	strne	r0, [r7, #-0]
 80c:	2a000005 	bcs	828 <__start__-0x1ff7f7d8>
 810:	07000002 	streq	r0, [r0, -r2]
 814:	00000533 	andeq	r0, r0, r3, lsr r5
 818:	00000235 	andeq	r0, r0, r5, lsr r2
 81c:	00024012 	andeq	r4, r2, r2, lsl r0
 820:	05510500 	ldrbeq	r0, [r1, #-1280]	; 0xfffffb00
 824:	024b0000 	subeq	r0, fp, #0
 828:	71050000 	mrsvc	r0, (UNDEF: 5)
 82c:	56000005 	strpl	r0, [r0], -r5
 830:	13000002 	movwne	r0, #2
 834:	00026114 	andeq	r6, r2, r4, lsl r1
 838:	012a1400 			; <UNDEFINED> instruction: 0x012a1400
 83c:	06780000 	ldrbteq	r0, [r8], -r0
 840:	00941ff8 			; <UNDEFINED> instruction: 0x00941ff8
 844:	41010000 	mrsmi	r0, (UNDEF: 1)
 848:	05fc0702 	ldrbeq	r0, [ip, #1794]!	; 0x702
 84c:	01360000 	teqeq	r6, r0
 850:	cf050000 	svcgt	0x00050000
 854:	41000005 	tstmi	r0, r5
 858:	05000001 	streq	r0, [r0, #-1]
 85c:	0000060f 	andeq	r0, r0, pc, lsl #12
 860:	0000014c 	andeq	r0, r0, ip, asr #2
 864:	0000f614 	andeq	pc, r0, r4, lsl r6	; <UNPREDICTABLE>
 868:	f8067800 			; <UNDEFINED> instruction: 0xf8067800
 86c:	0000241f 	andeq	r2, r0, pc, lsl r4
 870:	121a0100 	andsne	r0, sl, #0, 2
 874:	00059c07 	andeq	r9, r5, r7, lsl #24
 878:	00010200 	andeq	r0, r1, r0, lsl #4
 87c:	05ba0500 	ldreq	r0, [sl, #1280]!	; 0x500
 880:	010d0000 	mrseq	r0, (UNDEF: 13)
 884:	14000000 	strne	r0, [r0], #-0
 888:	000000f6 	strdeq	r0, [r0], -r6
 88c:	1ff806e0 	svcne	0x00f806e0
 890:	00000024 	andeq	r0, r0, r4, lsr #32
 894:	07062501 	streq	r2, [r6, -r1, lsl #10]
 898:	00000624 	andeq	r0, r0, r4, lsr #12
 89c:	00000102 	andeq	r0, r0, r2, lsl #2
 8a0:	00063705 	andeq	r3, r6, r5, lsl #14
 8a4:	00010d00 	andeq	r0, r1, r0, lsl #26
 8a8:	00000000 	andeq	r0, r0, r0
 8ac:	00039b15 	andeq	r9, r3, r5, lsl fp
 8b0:	012b0100 			; <UNDEFINED> instruction: 0x012b0100
 8b4:	0002710d 	andeq	r7, r2, sp, lsl #2
 8b8:	192b0100 	stmdbne	fp!, {r8}
 8bc:	0d000001 	stceq	0, cr0, [r0, #-4]
 8c0:	00000214 	andeq	r0, r0, r4, lsl r2
 8c4:	01582b01 	cmpeq	r8, r1, lsl #22
 8c8:	ee0d0000 	cdp	0, 0, cr0, cr13, cr0, {0}
 8cc:	01000001 	tsteq	r0, r1
 8d0:	0001192b 	andeq	r1, r1, fp, lsr #18
 8d4:	02750d00 	rsbseq	r0, r5, #0, 26
 8d8:	2b010000 	blcs	408e0 <__start__-0x1ff3f720>
 8dc:	0000026d 	andeq	r0, r0, sp, ror #4
 8e0:	00030b0e 	andeq	r0, r3, lr, lsl #22
 8e4:	192f0100 	stmdbne	pc!, {r8}	; <UNPREDICTABLE>
 8e8:	0e000001 	cdpeq	0, 0, cr0, cr0, cr1, {0}
 8ec:	00000311 	andeq	r0, r0, r1, lsl r3
 8f0:	01192e01 	tsteq	r9, r1, lsl #28
 8f4:	2d0e0000 	stccs	0, cr0, [lr, #-0]
 8f8:	01000000 	mrseq	r0, (UNDEF: 0)
 8fc:	0001192d 	andeq	r1, r1, sp, lsr #18
 900:	fe080000 	cdp2	0, 0, cr0, cr8, cr0, {0}
 904:	02000002 	andeq	r0, r0, #2
 908:	07100901 	ldreq	r0, [r0, -r1, lsl #18]
 90c:	05ac1ff8 	streq	r1, [ip, #4088]!	; 0xff8
 910:	5b010000 	blpl	40918 <__start__-0x1ff3f6e8>
 914:	00000160 	andeq	r0, r0, r0, ror #2
 918:	01194401 	tsteq	r9, r1, lsl #8
 91c:	570a0000 	strpl	r0, [sl, -r0]
 920:	14000006 	strne	r0, [r0], #-6
 924:	01000002 	tsteq	r0, r2
 928:	00015844 	andeq	r5, r1, r4, asr #16
 92c:	06b90a00 	ldrteq	r0, [r9], r0, lsl #20
 930:	013c0000 	teqeq	ip, r0
 934:	44010000 	strmi	r0, [r1], #-0
 938:	00000119 	andeq	r0, r0, r9, lsl r1
 93c:	0006d70a 	andeq	sp, r6, sl, lsl #14
 940:	00003700 	andeq	r3, r0, r0, lsl #14
 944:	20440100 	subcs	r0, r4, r0, lsl #2
 948:	0a000001 	beq	954 <__start__-0x1ff7f6ac>
 94c:	000006f5 	strdeq	r0, [r0], -r5
 950:	00000004 	andeq	r0, r0, r4
 954:	06ae4401 	strteq	r4, [lr], r1, lsl #8
 958:	db160000 	blle	580960 <__start__-0x1f9ff6a0>
 95c:	05000007 	streq	r0, [r0, #-7]
 960:	01000001 	tsteq	r0, r1
 964:	00011946 	andeq	r1, r1, r6, asr #18
 968:	03a01700 	moveq	r1, #0, 14
 96c:	b4010000 	strlt	r0, [r1], #-0
 970:	1ff80ca4 	svcne	0x00f80ca4
 974:	f8071c18 			; <UNDEFINED> instruction: 0xf8071c18
 978:	00057c1f 	andeq	r7, r5, pc, lsl ip
 97c:	07581600 	ldrbeq	r1, [r8, -r0, lsl #12]
 980:	00650000 	rsbeq	r0, r5, r0
 984:	48010000 	stmdami	r1, {}	; <UNPREDICTABLE>
 988:	00000119 	andeq	r0, r0, r9, lsl r1
 98c:	f8081818 			; <UNDEFINED> instruction: 0xf8081818
 990:	0001401f 	andeq	r4, r1, pc, lsl r0
 994:	08291600 	stmdaeq	r9!, {r9, sl, ip}
 998:	00d80000 	sbcseq	r0, r8, r0
 99c:	65010000 	strvs	r0, [r1, #-0]
 9a0:	00000119 	andeq	r0, r0, r9, lsl r1
 9a4:	f8082c18 			; <UNDEFINED> instruction: 0xf8082c18
 9a8:	00012c1f 	andeq	r2, r1, pc, lsl ip
 9ac:	7d021900 	vstrvc.16	s2, [r2, #-0]	; <UNPREDICTABLE>
 9b0:	00012e08 	andeq	r2, r1, r8, lsl #28
 9b4:	9b6d0100 	blls	1b40dbc <__start__-0x1e43f244>
 9b8:	0e000006 	cdpeq	0, 0, cr0, cr0, cr6, {0}
 9bc:	00000319 	andeq	r0, r0, r9, lsl r3
 9c0:	01197001 	tsteq	r9, r1
 9c4:	17140000 	ldrne	r0, [r4, -r0]
 9c8:	2c000002 	stccs	0, cr0, [r0], {2}
 9cc:	d81ff808 	ldmdale	pc, {r3, fp, ip, sp, lr, pc}	; <UNPREDICTABLE>
 9d0:	01000000 	mrseq	r0, (UNDEF: 0)
 9d4:	3c07066e 	stccc	6, cr0, [r7], {110}	; 0x6e
 9d8:	1f000008 	svcne	0x00000008
 9dc:	07000002 	streq	r0, [r0, -r2]
 9e0:	000008cf 	andeq	r0, r0, pc, asr #17
 9e4:	0000022a 	andeq	r0, r0, sl, lsr #4
 9e8:	0008ad07 	andeq	sl, r8, r7, lsl #26
 9ec:	00023500 	andeq	r3, r2, r0, lsl #10
 9f0:	02401200 	subeq	r1, r0, #0, 4
 9f4:	5a050000 	bpl	1409fc <__start__-0x1fe3f604>
 9f8:	4b000008 	blmi	a20 <__start__-0x1ff7f5e0>
 9fc:	05000002 	streq	r0, [r0, #-2]
 a00:	0000086d 	andeq	r0, r0, sp, ror #16
 a04:	00000256 	andeq	r0, r0, r6, asr r2
 a08:	00088b05 	andeq	r8, r8, r5, lsl #22
 a0c:	00026100 	andeq	r6, r2, r0, lsl #2
 a10:	012a0600 			; <UNDEFINED> instruction: 0x012a0600
 a14:	01380000 	teqeq	r8, r0
 a18:	41010000 	mrsmi	r0, (UNDEF: 1)
 a1c:	08f10702 	ldmeq	r1!, {r1, r8, r9, sl}^
 a20:	01360000 	teqeq	r6, r0
 a24:	13050000 	movwne	r0, #20480	; 0x5000
 a28:	41000009 	tstmi	r0, r9
 a2c:	05000001 	streq	r0, [r0, #-1]
 a30:	00000984 	andeq	r0, r0, r4, lsl #19
 a34:	0000014c 	andeq	r0, r0, ip, asr #2
 a38:	0000f606 	andeq	pc, r0, r6, lsl #12
 a3c:	00015000 	andeq	r5, r1, r0
 a40:	121a0100 	andsne	r0, sl, #0, 2
 a44:	00094007 	andeq	r4, r9, r7
 a48:	00010200 	andeq	r0, r1, r0, lsl #4
 a4c:	09640500 	stmdbeq	r4!, {r8, sl}^
 a50:	010d0000 	mrseq	r0, (UNDEF: 13)
 a54:	06000000 	streq	r0, [r0], -r0
 a58:	000000f6 	strdeq	r0, [r0], -r6
 a5c:	00000170 	andeq	r0, r0, r0, ror r1
 a60:	07062501 	streq	r2, [r6, -r1, lsl #10]
 a64:	000009a6 	andeq	r0, r0, r6, lsr #19
 a68:	00000102 	andeq	r0, r0, r2, lsl #2
 a6c:	0009c805 	andeq	ip, r9, r5, lsl #16
 a70:	00010d00 	andeq	r0, r1, r0, lsl #26
 a74:	00000000 	andeq	r0, r0, r0
 a78:	0000f614 	andeq	pc, r0, r4, lsl r6	; <UNPREDICTABLE>
 a7c:	f8090400 			; <UNDEFINED> instruction: 0xf8090400
 a80:	0000241f 	andeq	r2, r0, pc, lsl r4
 a84:	10700100 	rsbsne	r0, r0, r0, lsl #2
 a88:	0009f507 	andeq	pc, r9, r7, lsl #10
 a8c:	00010200 	andeq	r0, r1, r0, lsl #4
 a90:	0a170500 	beq	5c1e98 <__start__-0x1f9be168>
 a94:	010d0000 	mrseq	r0, (UNDEF: 13)
 a98:	18000000 	stmdane	r0, {}	; <UNPREDICTABLE>
 a9c:	1ff8092c 	svcne	0x00f8092c
 aa0:	0000002c 	andeq	r0, r0, ip, lsr #32
 aa4:	000a3916 	andeq	r3, sl, r6, lsl r9
 aa8:	0002cc00 	andeq	ip, r2, r0, lsl #24
 aac:	19710100 	ldmdbne	r1!, {r8}^
 ab0:	00000001 	andeq	r0, r0, r1
 ab4:	101a0000 	andsne	r0, sl, r0
 ab8:	19000002 	stmdbne	r0, {r1}
 abc:	2e087d02 	cdpcs	13, 0, cr7, cr8, cr2, {0}
 ac0:	01000001 	tsteq	r0, r1
 ac4:	00069b94 	muleq	r6, r4, fp
 ac8:	0a5b1600 	beq	16c62d0 <__start__-0x1e8b9d30>
 acc:	00d80000 	sbcseq	r0, r8, r0
 ad0:	93010000 	movwls	r0, #4096	; 0x1000
 ad4:	00000119 	andeq	r0, r0, r9, lsl r1
 ad8:	0001f81a 	andeq	pc, r1, sl, lsl r8	; <UNPREDICTABLE>
 adc:	03190e00 	tsteq	r9, #0, 28
 ae0:	9e010000 	cdpls	0, 0, cr0, cr1, cr0, {0}
 ae4:	00000119 	andeq	r0, r0, r9, lsl r1
 ae8:	00021706 	andeq	r1, r2, r6, lsl #14
 aec:	00018800 	andeq	r8, r1, r0, lsl #16
 af0:	069c0100 	ldreq	r0, [ip], r0, lsl #2
 af4:	000a8c07 	andeq	r8, sl, r7, lsl #24
 af8:	00021f00 	andeq	r1, r2, r0, lsl #30
 afc:	0a6e0500 	beq	1b81f04 <__start__-0x1e3fe0fc>
 b00:	02560000 	subseq	r0, r6, #0
 b04:	c0050000 	andgt	r0, r5, r0
 b08:	4b00000a 	blmi	b38 <__start__-0x1ff7f4c8>
 b0c:	06000002 	streq	r0, [r0], -r2
 b10:	0000012a 	andeq	r0, r0, sl, lsr #2
 b14:	000001a0 	andeq	r0, r0, r0, lsr #3
 b18:	07024101 	streq	r4, [r2, -r1, lsl #2]
 b1c:	00000ad3 	ldrdeq	r0, [r0], -r3
 b20:	00000136 	andeq	r0, r0, r6, lsr r1
 b24:	000af505 	andeq	pc, sl, r5, lsl #10
 b28:	00014100 	andeq	r4, r1, r0, lsl #2
 b2c:	0b660500 	bleq	1981f34 <__start__-0x1e5fe0cc>
 b30:	014c0000 	mrseq	r0, (UNDEF: 76)
 b34:	f6060000 			; <UNDEFINED> instruction: 0xf6060000
 b38:	c0000000 	andgt	r0, r0, r0
 b3c:	01000001 	tsteq	r0, r1
 b40:	2207121a 	andcs	r1, r7, #-1610612735	; 0xa0000001
 b44:	0200000b 	andeq	r0, r0, #11
 b48:	05000001 	streq	r0, [r0, #-1]
 b4c:	00000b46 	andeq	r0, r0, r6, asr #22
 b50:	0000010d 	andeq	r0, r0, sp, lsl #2
 b54:	00f60600 	rscseq	r0, r6, r0, lsl #12
 b58:	01e00000 	mvneq	r0, r0
 b5c:	25010000 	strcs	r0, [r1, #-0]
 b60:	0b880706 	bleq	fe202780 <data_abort_handler+0xde2027b0>
 b64:	01020000 	mrseq	r0, (UNDEF: 2)
 b68:	aa050000 	bge	140b70 <__start__-0x1fe3f490>
 b6c:	0d00000b 	stceq	0, cr0, [r0, #-44]	; 0xffffffd4
 b70:	00000001 	andeq	r0, r0, r1
 b74:	f6140000 			; <UNDEFINED> instruction: 0xf6140000
 b78:	e0000000 	and	r0, r0, r0
 b7c:	241ff80b 	ldrcs	pc, [pc], #-2059	; b84 <__start__-0x1ff7f47c>
 b80:	01000000 	mrseq	r0, (UNDEF: 0)
 b84:	9207109e 	andls	r1, r7, #158	; 0x9e
 b88:	0200000e 	andeq	r0, r0, #14
 b8c:	05000001 	streq	r0, [r0, #-1]
 b90:	00000eb4 			; <UNDEFINED> instruction: 0x00000eb4
 b94:	0000010d 	andeq	r0, r0, sp, lsl #2
 b98:	0c041800 	stceq	8, cr1, [r4], {-0}
 b9c:	00301ff8 	ldrshteq	r1, [r0], -r8
 ba0:	d6160000 	ldrle	r0, [r6], -r0
 ba4:	cc00000e 	stcgt	0, cr0, [r0], {14}
 ba8:	01000002 	tsteq	r0, r2
 bac:	0001199f 	muleq	r1, pc, r9	; <UNPREDICTABLE>
 bb0:	00000000 	andeq	r0, r0, r0
 bb4:	0002281a 	andeq	r2, r2, sl, lsl r8
 bb8:	0c0c1600 	stceq	6, cr1, [ip], {-0}
 bbc:	00d80000 	sbcseq	r0, r8, r0
 bc0:	58010000 	stmdapl	r1, {}	; <UNPREDICTABLE>
 bc4:	00000158 	andeq	r0, r0, r8, asr r1
 bc8:	0003190e 	andeq	r1, r3, lr, lsl #18
 bcc:	19590100 	ldmdbne	r9, {r8}^
 bd0:	14000001 	strne	r0, [r0], #-1
 bd4:	000000f6 	strdeq	r0, [r0], -r6
 bd8:	1ff80a60 	svcne	0x00f80a60
 bdc:	00000028 	andeq	r0, r0, r8, lsr #32
 be0:	070f5901 	streq	r5, [pc, -r1, lsl #18]
 be4:	00000bf9 	strdeq	r0, [r0], -r9
 be8:	00000102 	andeq	r0, r0, r2, lsl #2
 bec:	000bd705 	andeq	sp, fp, r5, lsl #14
 bf0:	00010d00 	andeq	r0, r1, r0, lsl #26
 bf4:	88180000 	ldmdahi	r8, {}	; <UNPREDICTABLE>
 bf8:	281ff80a 	ldmdacs	pc, {r1, r3, fp, ip, sp, lr, pc}	; <UNPREDICTABLE>
 bfc:	16000000 	strne	r0, [r0], -r0
 c00:	00000c2a 	andeq	r0, r0, sl, lsr #24
 c04:	000002cc 	andeq	r0, r0, ip, asr #5
 c08:	01195a01 	tsteq	r9, r1, lsl #20
 c0c:	00000000 	andeq	r0, r0, r0
 c10:	0002c81a 	andeq	ip, r2, sl, lsl r8
 c14:	0c4c1600 	mcrreq	6, 0, r1, ip, cr0
 c18:	00d80000 	sbcseq	r0, r8, r0
 c1c:	7c010000 	stcvc	0, cr0, [r1], {-0}
 c20:	00000119 	andeq	r0, r0, r9, lsl r1
 c24:	0002b01a 	andeq	fp, r2, sl, lsl r0
 c28:	7d021900 	vstrvc.16	s2, [r2, #-0]	; <UNPREDICTABLE>
 c2c:	00012e08 	andeq	r2, r1, r8, lsl #28
 c30:	9b840100 	blls	fe101038 <data_abort_handler+0xde101068>
 c34:	0e000006 	cdpeq	0, 0, cr0, cr0, cr6, {0}
 c38:	00000319 	andeq	r0, r0, r9, lsl r3
 c3c:	01198701 	tsteq	r9, r1, lsl #14
 c40:	17060000 	strne	r0, [r6, -r0]
 c44:	40000002 	andmi	r0, r0, r2
 c48:	01000002 	tsteq	r0, r2
 c4c:	4d070685 	stcmi	6, cr0, [r7, #-532]	; 0xfffffdec
 c50:	1f00000d 	svcne	0x0000000d
 c54:	07000002 	streq	r0, [r0, -r2]
 c58:	00000d1e 	andeq	r0, r0, lr, lsl sp
 c5c:	0000022a 	andeq	r0, r0, sl, lsr #4
 c60:	000cef07 	andeq	lr, ip, r7, lsl #30
 c64:	00023500 	andeq	r3, r2, r0, lsl #10
 c68:	02401200 	subeq	r1, r0, #0, 4
 c6c:	5f050000 	svcpl	0x00050000
 c70:	4b00000c 	blmi	ca8 <__start__-0x1ff7f358>
 c74:	05000002 	streq	r0, [r0, #-2]
 c78:	00000c7f 	andeq	r0, r0, pc, ror ip
 c7c:	00000256 	andeq	r0, r0, r6, asr r2
 c80:	000cc005 	andeq	ip, ip, r5
 c84:	00026100 	andeq	r6, r2, r0, lsl #2
 c88:	012a0600 			; <UNDEFINED> instruction: 0x012a0600
 c8c:	02580000 	subseq	r0, r8, #0
 c90:	41010000 	mrsmi	r0, (UNDEF: 1)
 c94:	0d810702 	stceq	7, cr0, [r1, #8]
 c98:	01360000 	teqeq	r6, r0
 c9c:	b0050000 	andlt	r0, r5, r0
 ca0:	4100000d 	tstmi	r0, sp
 ca4:	05000001 	streq	r0, [r0, #-1]
 ca8:	00000e21 	andeq	r0, r0, r1, lsr #28
 cac:	0000014c 	andeq	r0, r0, ip, asr #2
 cb0:	0000f606 	andeq	pc, r0, r6, lsl #12
 cb4:	00027800 	andeq	r7, r2, r0, lsl #16
 cb8:	121a0100 	andsne	r0, sl, #0, 2
 cbc:	000ddd07 	andeq	sp, sp, r7, lsl #26
 cc0:	00010200 	andeq	r0, r1, r0, lsl #4
 cc4:	0e010500 	cfsh32eq	mvfx0, mvfx1, #0
 cc8:	010d0000 	mrseq	r0, (UNDEF: 13)
 ccc:	06000000 	streq	r0, [r0], -r0
 cd0:	000000f6 	strdeq	r0, [r0], -r6
 cd4:	00000298 	muleq	r0, r8, r2
 cd8:	07062501 	streq	r2, [r6, -r1, lsl #10]
 cdc:	00000e43 	andeq	r0, r0, r3, asr #28
 ce0:	00000102 	andeq	r0, r0, r2, lsl #2
 ce4:	000e6505 	andeq	r6, lr, r5, lsl #10
 ce8:	00010d00 	andeq	r0, r1, r0, lsl #26
 cec:	00000000 	andeq	r0, r0, r0
 cf0:	0000f614 	andeq	pc, r0, r4, lsl r6	; <UNPREDICTABLE>
 cf4:	f80c3c00 			; <UNDEFINED> instruction: 0xf80c3c00
 cf8:	0000281f 	andeq	r2, r0, pc, lsl r8
 cfc:	10870100 	addne	r0, r7, r0, lsl #2
 d00:	000ef807 	andeq	pc, lr, r7, lsl #16
 d04:	00010200 	andeq	r0, r1, r0, lsl #4
 d08:	0f270500 	svceq	0x00270500
 d0c:	010d0000 	mrseq	r0, (UNDEF: 13)
 d10:	18000000 	stmdane	r0, {}	; <UNPREDICTABLE>
 d14:	1ff80c68 	svcne	0x00f80c68
 d18:	00000028 	andeq	r0, r0, r8, lsr #32
 d1c:	000f5616 	andeq	r5, pc, r6, lsl r6	; <UNPREDICTABLE>
 d20:	0002cc00 	andeq	ip, r2, r0, lsl #24
 d24:	19880100 	stmibne	r8, {r8}
 d28:	00000001 	andeq	r0, r0, r1
 d2c:	00000000 	andeq	r0, r0, r0
 d30:	0000981b 	andeq	r9, r0, fp, lsl r8
 d34:	06a71c00 	strteq	r1, [r7], r0, lsl #24
 d38:	00140000 	andseq	r0, r4, r0
 d3c:	0000811d 	andeq	r8, r0, sp, lsl r1
 d40:	1e070800 	cdpne	8, 0, cr0, cr7, cr0, {0}
 d44:	000006b9 			; <UNDEFINED> instruction: 0x000006b9
 d48:	0000003b 	andeq	r0, r0, fp, lsr r0
 d4c:	c41e0e02 	ldrgt	r0, [lr], #-3586	; 0xfffff1fe
 d50:	70000006 	andvc	r0, r0, r6
 d54:	01000003 	tsteq	r0, r3
 d58:	01321f42 	teqeq	r2, r2, asr #30
 d5c:	01040000 	mrseq	r0, (UNDEF: 4)
 d60:	03b72042 			; <UNDEFINED> instruction: 0x03b72042
 d64:	06d90000 	ldrbeq	r0, [r9], r0
 d68:	42010000 	andmi	r0, r1, #0
 d6c:	00210000 	eoreq	r0, r1, r0
 d70:	00000173 	andeq	r0, r0, r3, ror r1
 d74:	04ec0004 	strbteq	r0, [ip], #4
 d78:	01040000 	mrseq	r0, (UNDEF: 4)
 d7c:	0000027b 	andeq	r0, r0, fp, ror r2
 d80:	021c000c 	andseq	r0, ip, #12
 d84:	09cd0000 	stmibeq	sp, {}^	; <UNPREDICTABLE>
 d88:	032a0000 			; <UNDEFINED> instruction: 0x032a0000
 d8c:	0cbc0000 	ldceq	0, cr0, [ip]
 d90:	00b41ff8 	ldrshteq	r1, [r4], r8
 d94:	60020000 	andvs	r0, r2, r0
 d98:	01000001 	tsteq	r0, r1
 d9c:	00004606 	andeq	r4, r0, r6, lsl #12
 da0:	004d0300 	subeq	r0, sp, r0, lsl #6
 da4:	46030000 	strmi	r0, [r3], -r0
 da8:	03000000 	movweq	r0, #0
 dac:	00000059 	andeq	r0, r0, r9, asr r0
 db0:	00006303 	andeq	r6, r0, r3, lsl #6
 db4:	b2040000 	andlt	r0, r4, #0
 db8:	05000000 	streq	r0, [r0, #-0]
 dbc:	00520504 	subseq	r0, r2, r4, lsl #10
 dc0:	1f040000 	svcne	0x00040000
 dc4:	08000001 	stmdaeq	r0, {r0}
 dc8:	005e0501 	subseq	r0, lr, r1, lsl #10
 dcc:	52060000 	andpl	r0, r6, #0
 dd0:	07000000 	streq	r0, [r0, -r0]
 dd4:	00000132 	andeq	r0, r0, r2, lsr r1
 dd8:	080c0204 	stmdaeq	ip, {r2, r9}
 ddc:	000003b7 			; <UNDEFINED> instruction: 0x000003b7
 de0:	00000078 	andeq	r0, r0, r8, ror r0
 de4:	00000c02 	andeq	r0, r0, r2, lsl #24
 de8:	00670a09 	rsbeq	r0, r7, r9, lsl #20
 dec:	0a030000 	beq	c0df4 <__start__-0x1febf20c>
 df0:	00009a03 	andeq	r9, r0, r3, lsl #20
 df4:	00a10300 	adceq	r0, r1, r0, lsl #6
 df8:	a1030000 	mrsge	r0, (UNDEF: 3)
 dfc:	03000000 	movweq	r0, #0
 e00:	000000a1 	andeq	r0, r0, r1, lsr #1
 e04:	00005203 	andeq	r5, r0, r3, lsl #4
 e08:	fe040000 	cdp2	0, 0, cr0, cr4, cr0, {0}
 e0c:	02000002 	andeq	r0, r0, #2
 e10:	01120401 	tsteq	r2, r1, lsl #8
 e14:	04070000 	streq	r0, [r7], #-0
 e18:	0000280b 	andeq	r2, r0, fp, lsl #16
 e1c:	0000b900 	andeq	fp, r0, r0, lsl #18
 e20:	05080200 	streq	r0, [r8, #-512]	; 0xfffffe00
 e24:	f868f803 			; <UNDEFINED> instruction: 0xf868f803
 e28:	00520c1f 	subseq	r0, r2, pc, lsl ip
 e2c:	c60d0000 	strgt	r0, [sp], -r0
 e30:	00000000 	andeq	r0, r0, r0
 e34:	810e0002 	tsthi	lr, r2
 e38:	08000000 	stmdaeq	r0, {}	; <UNPREDICTABLE>
 e3c:	02c50b07 	sbceq	r0, r5, #7168	; 0x1c00
 e40:	00460000 	subeq	r0, r6, r0
 e44:	06020000 	streq	r0, [r2], -r0
 e48:	18680305 	stmdane	r8!, {r0, r2, r8, r9}^
 e4c:	570b1ff8 			; <UNDEFINED> instruction: 0x570b1ff8
 e50:	46000000 	strmi	r0, [r0], -r0
 e54:	02000000 	andeq	r0, r0, #0
 e58:	6c030507 	cfstr32vs	mvfx0, [r3], {7}
 e5c:	0f1ff818 	svceq	0x001ff818
 e60:	1ff80cbc 	svcne	0x00f80cbc
 e64:	000000b4 	strheq	r0, [r0], -r4
 e68:	024f5b01 	subeq	r5, pc, #1024	; 0x400
 e6c:	0a020000 	beq	80e74 <__start__-0x1feff18c>
 e70:	000f7810 	andeq	r7, pc, r0, lsl r8	; <UNPREDICTABLE>
 e74:	00014100 	andeq	r4, r1, r0, lsl #2
 e78:	590a0200 	stmdbpl	sl, {r9}
 e7c:	11000000 	mrsne	r0, (UNDEF: 0)
 e80:	04087d02 	streq	r7, [r8], #-3330	; 0xfffff2fe
 e84:	02000000 	andeq	r0, r0, #0
 e88:	0001550c 	andeq	r5, r1, ip, lsl #10
 e8c:	0fb51200 	svceq	0x00b51200
 e90:	03190000 	tsteq	r9, #0
 e94:	0e020000 	cdpeq	0, 0, cr0, cr2, cr0, {0}
 e98:	00000046 	andeq	r0, r0, r6, asr #32
 e9c:	0002e013 	andeq	lr, r2, r3, lsl r0
 ea0:	0fa11200 	svceq	0x00a11200
 ea4:	00650000 	rsbeq	r0, r5, r0
 ea8:	11020000 	mrsne	r0, (UNDEF: 2)
 eac:	0000016b 	andeq	r0, r0, fp, ror #2
 eb0:	26151400 	ldrcs	r1, [r5], -r0, lsl #8
 eb4:	f4000000 	vst4.8	{d0-d3}, [r0], r0
 eb8:	151ff80c 	ldrne	pc, [pc, #-2060]	; 6b4 <__start__-0x1ff7f94c>
 ebc:	00000079 	andeq	r0, r0, r9, ror r0
 ec0:	1ff80d24 	svcne	0x00f80d24
 ec4:	01601600 	cmneq	r0, r0, lsl #12
 ec8:	003b0000 	eorseq	r0, fp, r0
 ecc:	0e040000 	cdpeq	0, 0, cr0, cr4, cr0, {0}
 ed0:	00006316 	andeq	r6, r0, r6, lsl r3
 ed4:	00037000 	andeq	r7, r3, r0
 ed8:	160c0200 	strne	r0, [ip], -r0, lsl #4
 edc:	000000a1 	andeq	r0, r0, r1, lsr #1
 ee0:	00000000 	andeq	r0, r0, r0
 ee4:	22001705 	andcs	r1, r0, #1310720	; 0x140000
 ee8:	02000000 	andeq	r0, r0, #0
 eec:	0005f800 	andeq	pc, r5, r0, lsl #16
 ef0:	be010400 	cfcpyslt	mvf0, mvf1
 ef4:	7000000a 	andvc	r0, r0, sl
 ef8:	841ff80d 	ldrhi	pc, [pc], #-2061	; f00 <__start__-0x1ff7f100>
 efc:	281ff80e 	ldmdacs	pc, {r1, r2, r3, fp, ip, sp, lr, pc}	; <UNPREDICTABLE>
 f00:	7a000002 	bvc	f10 <__start__-0x1ff7f0f0>
 f04:	0c000001 	stceq	0, cr0, [r0], {1}
 f08:	01000000 	mrseq	r0, (UNDEF: 0)
 f0c:	00002280 	andeq	r2, r0, r0, lsl #5
 f10:	0c000200 	sfmeq	f0, 4, [r0], {-0}
 f14:	04000006 	streq	r0, [r0], #-6
 f18:	000b3201 	andeq	r3, fp, r1, lsl #4
 f1c:	f80e8400 			; <UNDEFINED> instruction: 0xf80e8400
 f20:	f80fcc1f 			; <UNDEFINED> instruction: 0xf80fcc1f
 f24:	0002281f 	andeq	r2, r2, pc, lsl r8
 f28:	00017a00 	andeq	r7, r1, r0, lsl #20
 f2c:	00000c00 	andeq	r0, r0, r0, lsl #24
 f30:	22800100 	addcs	r0, r0, #0, 2
 f34:	02000000 	andeq	r0, r0, #0
 f38:	00062000 	andeq	r2, r6, r0
 f3c:	b2010400 	andlt	r0, r1, #0, 8
 f40:	cc00000b 	stcgt	0, cr0, [r0], {11}
 f44:	d01ff80f 	andsle	pc, pc, pc, lsl #16
 f48:	281ff80f 	ldmdacs	pc, {r0, r1, r2, r3, fp, ip, sp, lr, pc}	; <UNPREDICTABLE>
 f4c:	7a000002 	bvc	f5c <__start__-0x1ff7f0a4>
 f50:	0c000001 	stceq	0, cr0, [r0], {1}
 f54:	01000000 	mrseq	r0, (UNDEF: 0)
 f58:	Address 0x0000000000000f58 is out of bounds.


Disassembly of section .debug_abbrev:

00000000 <.debug_abbrev>:
   0:	10001101 	andne	r1, r0, r1, lsl #2
   4:	12011106 	andne	r1, r1, #-2147483647	; 0x80000001
   8:	1b0e0301 	blne	380c14 <__start__-0x1fbff3ec>
   c:	130e250e 	movwne	r2, #58638	; 0xe50e
  10:	00000005 	andeq	r0, r0, r5
  14:	25011101 	strcs	r1, [r1, #-257]	; 0xfffffeff
  18:	0305130e 	movweq	r1, #21262	; 0x530e
  1c:	1b17100e 	blne	5c405c <__start__-0x1f9bbfa4>
  20:	1201110e 	andne	r1, r1, #-2147483645	; 0x80000003
  24:	02000006 	andeq	r0, r0, #6
  28:	0e030034 	mcreq	0, 0, r0, cr3, cr4, {1}
  2c:	0b3a1349 	bleq	e84d58 <__start__-0x1f0fb2a8>
  30:	18020b3b 	stmdane	r2, {r0, r1, r3, r4, r5, r8, r9, fp}
  34:	01030000 	mrseq	r0, (UNDEF: 3)
  38:	00134901 	andseq	r4, r3, r1, lsl #18
  3c:	00210400 	eoreq	r0, r1, r0, lsl #8
  40:	05371349 	ldreq	r1, [r7, #-841]!	; 0xfffffcb7
  44:	26050000 	strcs	r0, [r5], -r0
  48:	00134900 	andseq	r4, r3, r0, lsl #18
  4c:	00240600 	eoreq	r0, r4, r0, lsl #12
  50:	0b3e0e03 	bleq	f83864 <__start__-0x1effc79c>
  54:	00000b0b 	andeq	r0, r0, fp, lsl #22
  58:	03002407 	movweq	r2, #1031	; 0x407
  5c:	3e0b0b0e 	vmlacc.f64	d0, d11, d14
  60:	0800000b 	stmdaeq	r0, {r0, r1, r3}
  64:	1349000f 	movtne	r0, #36879	; 0x900f
  68:	16090000 	strne	r0, [r9], -r0
  6c:	03134900 	tsteq	r3, #0, 18
  70:	3b0b3a0e 	blcc	2ce8b0 <__start__-0x1fcb1750>
  74:	0a00000b 	beq	a8 <__start__-0x1ff7ff58>
  78:	13490035 	movtne	r0, #36917	; 0x9035
  7c:	2e0b0000 	cdpcs	0, 0, cr0, cr11, cr0, {0}
  80:	3a0e0301 	bcc	380c8c <__start__-0x1fbff374>
  84:	270b3b0b 	strcs	r3, [fp, -fp, lsl #22]
  88:	000b2019 	andeq	r2, fp, r9, lsl r0
  8c:	00050c00 	andeq	r0, r5, r0, lsl #24
  90:	0b3a0e03 	bleq	e838a4 <__start__-0x1f0fc75c>
  94:	13490b3b 	movtne	r0, #39739	; 0x9b3b
  98:	2e0d0000 	cdpcs	0, 0, cr0, cr13, cr0, {0}
  9c:	12011101 	andne	r1, r1, #1073741824	; 0x40000000
  a0:	97184006 	ldrls	r4, [r8, -r6]
  a4:	0e031942 	vmlseq.f16	s2, s6, s4	; <UNPREDICTABLE>
  a8:	0b3b0b3a 	bleq	ec2d98 <__start__-0x1f0bd268>
  ac:	193f1927 	ldmdbne	pc!, {r0, r1, r2, r5, r8, fp, ip}	; <UNPREDICTABLE>
  b0:	050e0000 	streq	r0, [lr, #-0]
  b4:	03170200 	tsteq	r7, #0, 4
  b8:	3b0b3a0e 	blcc	2ce8f8 <__start__-0x1fcb1708>
  bc:	0013490b 	andseq	r4, r3, fp, lsl #18
  c0:	00340f00 	eorseq	r0, r4, r0, lsl #30
  c4:	0b3a0e03 	bleq	e838d8 <__start__-0x1f0fc728>
  c8:	13490b3b 	movtne	r0, #39739	; 0x9b3b
  cc:	0b100000 	bleq	4000d4 <__start__-0x1fb7ff2c>
  d0:	12011101 	andne	r1, r1, #1073741824	; 0x40000000
  d4:	11000006 	tstne	r0, r6
  d8:	17020034 	smladxne	r2, r4, r0, r0
  dc:	0b3a0e03 	bleq	e838f0 <__start__-0x1f0fc710>
  e0:	13490b3b 	movtne	r0, #39739	; 0x9b3b
  e4:	0b120000 	bleq	4800ec <__start__-0x1fafff14>
  e8:	00175501 	andseq	r5, r7, r1, lsl #10
  ec:	011d1300 	tsteq	sp, r0, lsl #6
  f0:	17551331 	smmlarne	r5, r1, r3, r1
  f4:	0b590b58 	bleq	1642e5c <__start__-0x1e93d1a4>
  f8:	00000b57 	andeq	r0, r0, r7, asr fp
  fc:	31000514 	tstcc	r0, r4, lsl r5
 100:	15000013 	strne	r0, [r0, #-19]	; 0xffffffed
 104:	1331011d 	teqne	r1, #1073741831	; 0x40000007
 108:	06120111 			; <UNDEFINED> instruction: 0x06120111
 10c:	0b590b58 	bleq	1642e74 <__start__-0x1e93d18c>
 110:	00000b57 	andeq	r0, r0, r7, asr fp
 114:	02000516 	andeq	r0, r0, #92274688	; 0x5800000
 118:	00133118 	andseq	r3, r3, r8, lsl r1
 11c:	00051700 	andeq	r1, r5, r0, lsl #14
 120:	13310f1c 	teqne	r1, #28, 30	; 0x70
 124:	05180000 	ldreq	r0, [r8, #-0]
 128:	31170200 	tstcc	r7, r0, lsl #4
 12c:	00000013 	andeq	r0, r0, r3, lsl r0
 130:	25011101 	strcs	r1, [r1, #-257]	; 0xfffffeff
 134:	0305130e 	movweq	r1, #21262	; 0x530e
 138:	1b17100e 	blne	5c4178 <__start__-0x1f9bbe88>
 13c:	1201110e 	andne	r1, r1, #-2147483645	; 0x80000003
 140:	02000006 	andeq	r0, r0, #6
 144:	0e03012e 	adfeqsp	f0, f3, #0.5
 148:	0b3b0b3a 	bleq	ec2e38 <__start__-0x1f0bd1c8>
 14c:	193c1927 	ldmdbne	ip!, {r0, r1, r2, r5, r8, fp, ip}
 150:	0000193f 	andeq	r1, r0, pc, lsr r9
 154:	49000503 	stmdbmi	r0, {r0, r1, r8, sl}
 158:	04000013 	streq	r0, [r0], #-19	; 0xffffffed
 15c:	00000018 	andeq	r0, r0, r8, lsl r0
 160:	49000f05 	stmdbmi	r0, {r0, r2, r8, r9, sl, fp}
 164:	06000013 			; <UNDEFINED> instruction: 0x06000013
 168:	13490026 	movtne	r0, #36902	; 0x9026
 16c:	24070000 	strcs	r0, [r7], #-0
 170:	3e0e0300 	cdpcc	3, 0, cr0, cr14, cr0, {0}
 174:	000b0b0b 	andeq	r0, fp, fp, lsl #22
 178:	00340800 	eorseq	r0, r4, r0, lsl #16
 17c:	13490e03 	movtne	r0, #40451	; 0x9e03
 180:	0b3b0b3a 	bleq	ec2e70 <__start__-0x1f0bd190>
 184:	00001802 	andeq	r1, r0, r2, lsl #16
 188:	49010109 	stmdbmi	r1, {r0, r3, r8}
 18c:	0a000013 	beq	1e0 <__start__-0x1ff7fe20>
 190:	13490021 	movtne	r0, #36897	; 0x9021
 194:	00000b37 	andeq	r0, r0, r7, lsr fp
 198:	0301130b 	movweq	r1, #4875	; 0x130b
 19c:	3a050b0e 	bcc	142ddc <__start__-0x1fe3d224>
 1a0:	000b3b0b 	andeq	r3, fp, fp, lsl #22
 1a4:	000d0c00 	andeq	r0, sp, r0, lsl #24
 1a8:	13490e03 	movtne	r0, #40451	; 0x9e03
 1ac:	0b3b0b3a 	bleq	ec2e9c <__start__-0x1f0bd164>
 1b0:	00000b38 	andeq	r0, r0, r8, lsr fp
 1b4:	4900160d 	stmdbmi	r0, {r0, r2, r3, r9, sl, ip}
 1b8:	3a0e0313 	bcc	380e0c <__start__-0x1fbff1f4>
 1bc:	000b3b0b 	andeq	r3, fp, fp, lsl #22
 1c0:	00210e00 	eoreq	r0, r1, r0, lsl #28
 1c4:	05371349 	ldreq	r1, [r7, #-841]!	; 0xfffffcb7
 1c8:	240f0000 	strcs	r0, [pc], #-0	; 1d0 <__start__-0x1ff7fe30>
 1cc:	0b0e0300 	bleq	380dd4 <__start__-0x1fbff22c>
 1d0:	000b3e0b 	andeq	r3, fp, fp, lsl #28
 1d4:	000f1000 	andeq	r1, pc, r0
 1d8:	2e110000 	cdpcs	0, 1, cr0, cr1, cr0, {0}
 1dc:	12011101 	andne	r1, r1, #1073741824	; 0x40000000
 1e0:	97184006 	ldrls	r4, [r8, -r6]
 1e4:	0e031942 	vmlseq.f16	s2, s6, s4	; <UNPREDICTABLE>
 1e8:	0b3b0b3a 	bleq	ec2ed8 <__start__-0x1f0bd128>
 1ec:	193f1927 	ldmdbne	pc!, {r0, r1, r2, r5, r8, fp, ip}	; <UNPREDICTABLE>
 1f0:	34120000 	ldrcc	r0, [r2], #-0
 1f4:	03170200 	tsteq	r7, #0, 4
 1f8:	3b0b3a0e 	blcc	2cea38 <__start__-0x1fcb15c8>
 1fc:	0013490b 	andseq	r4, r3, fp, lsl #18
 200:	010b1300 	mrseq	r1, (UNDEF: 59)
 204:	06120111 			; <UNDEFINED> instruction: 0x06120111
 208:	89140000 	ldmdbhi	r4, {}	; <UNPREDICTABLE>
 20c:	31000182 	smlabbcc	r0, r2, r1, r0
 210:	00011113 	andeq	r1, r1, r3, lsl r1
 214:	82891500 	addhi	r1, r9, #0, 10
 218:	13310001 	teqne	r1, #1
 21c:	11194295 			; <UNDEFINED> instruction: 0x11194295
 220:	16000001 	strne	r0, [r0], -r1
 224:	0111012e 	tsteq	r1, lr, lsr #2
 228:	18400612 	stmdane	r0, {r1, r4, r9, sl}^
 22c:	03194297 	tsteq	r9, #1879048201	; 0x70000009
 230:	3b0b3a0e 	blcc	2cea70 <__start__-0x1fcb1590>
 234:	4919270b 	ldmdbmi	r9, {r0, r1, r3, r8, r9, sl, sp}
 238:	17000013 	smladne	r0, r3, r0, r0
 23c:	0d1c0005 	ldceq	0, cr0, [ip, #-20]	; 0xffffffec
 240:	0b3a0e03 	bleq	e83a54 <__start__-0x1f0fc5ac>
 244:	13490b3b 	movtne	r0, #39739	; 0x9b3b
 248:	05180000 	ldreq	r0, [r8, #-0]
 24c:	03170200 	tsteq	r7, #0, 4
 250:	3b0b3a0e 	blcc	2cea90 <__start__-0x1fcb1570>
 254:	0013490b 	andseq	r4, r3, fp, lsl #18
 258:	012e1900 			; <UNDEFINED> instruction: 0x012e1900
 25c:	0b3a0e03 	bleq	e83a70 <__start__-0x1f0fc590>
 260:	19270b3b 	stmdbne	r7!, {r0, r1, r3, r4, r5, r8, r9, fp}
 264:	0b201349 	bleq	804f90 <__start__-0x1f77b070>
 268:	051a0000 	ldreq	r0, [sl, #-0]
 26c:	3a0e0300 	bcc	380e74 <__start__-0x1fbff18c>
 270:	490b3b0b 	stmdbmi	fp, {r0, r1, r3, r8, r9, fp, ip, sp}
 274:	1b000013 	blne	2c8 <__start__-0x1ff7fd38>
 278:	0e030034 	mcreq	0, 0, r0, cr3, cr4, {1}
 27c:	0b3b0b3a 	bleq	ec2f6c <__start__-0x1f0bd094>
 280:	00001349 	andeq	r1, r0, r9, asr #6
 284:	00010b1c 	andeq	r0, r1, ip, lsl fp
 288:	012e1d00 			; <UNDEFINED> instruction: 0x012e1d00
 28c:	06120111 			; <UNDEFINED> instruction: 0x06120111
 290:	42971840 	addsmi	r1, r7, #64, 16	; 0x400000
 294:	3a0e0319 	bcc	380f00 <__start__-0x1fbff100>
 298:	270b3b0b 	strcs	r3, [fp, -fp, lsl #22]
 29c:	3f134919 	svccc	0x00134919
 2a0:	1e000019 	mcrne	0, 0, r0, cr0, cr9, {0}
 2a4:	1755010b 	ldrbne	r0, [r5, -fp, lsl #2]
 2a8:	1d1f0000 	ldcne	0, cr0, [pc, #-0]	; 2b0 <__start__-0x1ff7fd50>
 2ac:	11133101 	tstne	r3, r1, lsl #2
 2b0:	58061201 	stmdapl	r6, {r0, r9, ip}
 2b4:	570b590b 	strpl	r5, [fp, -fp, lsl #18]
 2b8:	2000000b 	andcs	r0, r0, fp
 2bc:	17020005 	strne	r0, [r2, -r5]
 2c0:	00001331 	andeq	r1, r0, r1, lsr r3
 2c4:	02003421 	andeq	r3, r0, #553648128	; 0x21000000
 2c8:	00133117 	andseq	r3, r3, r7, lsl r1
 2cc:	11010000 	mrsne	r0, (UNDEF: 1)
 2d0:	130e2501 	movwne	r2, #58625	; 0xe501
 2d4:	100e0305 	andne	r0, lr, r5, lsl #6
 2d8:	110e1b17 	tstne	lr, r7, lsl fp
 2dc:	00175501 	andseq	r5, r7, r1, lsl #10
 2e0:	012e0200 			; <UNDEFINED> instruction: 0x012e0200
 2e4:	0b3a0e03 	bleq	e83af8 <__start__-0x1f0fc508>
 2e8:	19270b3b 	stmdbne	r7!, {r0, r1, r3, r4, r5, r8, r9, fp}
 2ec:	193f193c 	ldmdbne	pc!, {r2, r3, r4, r5, r8, fp, ip}	; <UNPREDICTABLE>
 2f0:	05030000 	streq	r0, [r3, #-0]
 2f4:	00134900 	andseq	r4, r3, r0, lsl #18
 2f8:	00180400 	andseq	r0, r8, r0, lsl #8
 2fc:	0f050000 	svceq	0x00050000
 300:	00134900 	andseq	r4, r3, r0, lsl #18
 304:	00260600 	eoreq	r0, r6, r0, lsl #12
 308:	00001349 	andeq	r1, r0, r9, asr #6
 30c:	03002407 	movweq	r2, #1031	; 0x407
 310:	0b0b3e0e 	bleq	2cfb50 <__start__-0x1fcb04b0>
 314:	0800000b 	stmdaeq	r0, {r0, r1, r3}
 318:	0e03002e 	cdpeq	0, 0, cr0, cr3, cr14, {1}
 31c:	0b3b0b3a 	bleq	ec300c <__start__-0x1f0bcff4>
 320:	193c1927 	ldmdbne	ip!, {r0, r1, r2, r5, r8, fp, ip}
 324:	0000193f 	andeq	r1, r0, pc, lsr r9
 328:	11012e09 	tstne	r1, r9, lsl #28
 32c:	40061201 	andmi	r1, r6, r1, lsl #4
 330:	19429718 	stmdbne	r2, {r3, r4, r8, r9, sl, ip, pc}^
 334:	0b3a0e03 	bleq	e83b48 <__start__-0x1f0fc4b8>
 338:	19270b3b 	stmdbne	r7!, {r0, r1, r3, r4, r5, r8, r9, fp}
 33c:	0000193f 	andeq	r1, r0, pc, lsr r9
 340:	0182890a 	orreq	r8, r2, sl, lsl #18
 344:	11133100 	tstne	r3, r0, lsl #2
 348:	00000001 	andeq	r0, r0, r1
 34c:	25011101 	strcs	r1, [r1, #-257]	; 0xfffffeff
 350:	0305130e 	movweq	r1, #21262	; 0x530e
 354:	1b17100e 	blne	5c4394 <__start__-0x1f9bbc6c>
 358:	1201110e 	andne	r1, r1, #-2147483645	; 0x80000003
 35c:	02000006 	andeq	r0, r0, #6
 360:	0111012e 	tsteq	r1, lr, lsr #2
 364:	18400612 	stmdane	r0, {r1, r4, r9, sl}^
 368:	31194297 			; <UNDEFINED> instruction: 0x31194297
 36c:	03000013 	movweq	r0, #19
 370:	0e030034 	mcreq	0, 0, r0, cr3, cr4, {1}
 374:	0b3a1349 	bleq	e850a0 <__start__-0x1f0faf60>
 378:	00000b3b 	andeq	r0, r0, fp, lsr fp
 37c:	02000504 	andeq	r0, r0, #4, 10	; 0x1000000
 380:	00133118 	andseq	r3, r3, r8, lsl r1
 384:	00340500 	eorseq	r0, r4, r0, lsl #10
 388:	13311702 	teqne	r1, #524288	; 0x80000
 38c:	1d060000 	stcne	0, cr0, [r6, #-0]
 390:	55133101 	ldrpl	r3, [r3, #-257]	; 0xfffffeff
 394:	590b5817 	stmdbpl	fp, {r0, r1, r2, r4, fp, ip, lr}
 398:	000b570b 	andeq	r5, fp, fp, lsl #14
 39c:	00050700 	andeq	r0, r5, r0, lsl #14
 3a0:	13311702 	teqne	r1, #524288	; 0x80000
 3a4:	24080000 	strcs	r0, [r8], #-0
 3a8:	3e0e0300 	cdpcc	3, 0, cr0, cr14, cr0, {0}
 3ac:	000b0b0b 	andeq	r0, fp, fp, lsl #22
 3b0:	012e0900 			; <UNDEFINED> instruction: 0x012e0900
 3b4:	06120111 			; <UNDEFINED> instruction: 0x06120111
 3b8:	42971840 	addsmi	r1, r7, #64, 16	; 0x400000
 3bc:	3a0e0319 	bcc	381028 <__start__-0x1fbfefd8>
 3c0:	270b3b0b 	strcs	r3, [fp, -fp, lsl #22]
 3c4:	3f134919 	svccc	0x00134919
 3c8:	0a000019 	beq	434 <__start__-0x1ff7fbcc>
 3cc:	17020005 	strne	r0, [r2, -r5]
 3d0:	0b3a0e03 	bleq	e83be4 <__start__-0x1f0fc41c>
 3d4:	13490b3b 	movtne	r0, #39739	; 0x9b3b
 3d8:	050b0000 	streq	r0, [fp, #-0]
 3dc:	03180200 	tsteq	r8, #0, 4
 3e0:	3b0b3a0e 	blcc	2cec20 <__start__-0x1fcb13e0>
 3e4:	0013490b 	andseq	r4, r3, fp, lsl #18
 3e8:	012e0c00 			; <UNDEFINED> instruction: 0x012e0c00
 3ec:	0b3a0e03 	bleq	e83c00 <__start__-0x1f0fc400>
 3f0:	19270b3b 	stmdbne	r7!, {r0, r1, r3, r4, r5, r8, r9, fp}
 3f4:	0b201349 	bleq	805120 <__start__-0x1f77aee0>
 3f8:	050d0000 	streq	r0, [sp, #-0]
 3fc:	3a0e0300 	bcc	381004 <__start__-0x1fbfeffc>
 400:	490b3b0b 	stmdbmi	fp, {r0, r1, r3, r8, r9, fp, ip, sp}
 404:	0e000013 	mcreq	0, 0, r0, cr0, cr3, {0}
 408:	0e030034 	mcreq	0, 0, r0, cr3, cr4, {1}
 40c:	0b3b0b3a 	bleq	ec30fc <__start__-0x1f0bcf04>
 410:	00001349 	andeq	r1, r0, r9, asr #6
 414:	49000f0f 	stmdbmi	r0, {r0, r1, r2, r3, r8, r9, sl, fp}
 418:	10000013 	andne	r0, r0, r3, lsl r0
 41c:	13490026 	movtne	r0, #36902	; 0x9026
 420:	2e110000 	cdpcs	0, 1, cr0, cr1, cr0, {0}
 424:	3a0e0301 	bcc	381030 <__start__-0x1fbfefd0>
 428:	270b3b0b 	strcs	r3, [fp, -fp, lsl #22]
 42c:	3f134919 	svccc	0x00134919
 430:	000b2019 	andeq	r2, fp, r9, lsl r0
 434:	00051200 	andeq	r1, r5, r0, lsl #4
 438:	00001331 	andeq	r1, r0, r1, lsr r3
 43c:	1c003413 	cfstrsne	mvf3, [r0], {19}
 440:	0013310d 	andseq	r3, r3, sp, lsl #2
 444:	011d1400 	tsteq	sp, r0, lsl #8
 448:	01111331 	tsteq	r1, r1, lsr r3
 44c:	0b580612 	bleq	1601c9c <__start__-0x1e97e364>
 450:	0b570b59 	bleq	15c31bc <__start__-0x1e9bce44>
 454:	2e150000 	cdpcs	0, 1, cr0, cr5, cr0, {0}
 458:	3a0e0301 	bcc	381064 <__start__-0x1fbfef9c>
 45c:	270b3b0b 	strcs	r3, [fp, -fp, lsl #22]
 460:	20193f19 	andscs	r3, r9, r9, lsl pc
 464:	1600000b 	strne	r0, [r0], -fp
 468:	17020034 	smladxne	r2, r4, r0, r0
 46c:	0b3a0e03 	bleq	e83c80 <__start__-0x1f0fc380>
 470:	13490b3b 	movtne	r0, #39739	; 0x9b3b
 474:	0a170000 	beq	5c047c <__start__-0x1f9bfb84>
 478:	3a0e0300 	bcc	381080 <__start__-0x1fbfef80>
 47c:	110b3b0b 	tstne	fp, fp, lsl #22
 480:	18000001 	stmdane	r0, {r0}
 484:	0111010b 	tsteq	r1, fp, lsl #2
 488:	00000612 	andeq	r0, r0, r2, lsl r6
 48c:	02003419 	andeq	r3, r0, #419430400	; 0x19000000
 490:	3a0e0318 	bcc	3810f8 <__start__-0x1fbfef08>
 494:	490b3b0b 	stmdbmi	fp, {r0, r1, r3, r8, r9, fp, ip, sp}
 498:	1a000013 	bne	4ec <__start__-0x1ff7fb14>
 49c:	1755010b 	ldrbne	r0, [r5, -fp, lsl #2]
 4a0:	011b0000 	tsteq	fp, r0
 4a4:	00134901 	andseq	r4, r3, r1, lsl #18
 4a8:	00211c00 	eoreq	r1, r1, r0, lsl #24
 4ac:	0b371349 	bleq	dc51d8 <__start__-0x1f1bae28>
 4b0:	241d0000 	ldrcs	r0, [sp], #-0
 4b4:	0b0e0300 	bleq	3810bc <__start__-0x1fbfef44>
 4b8:	000b3e0b 	andeq	r3, fp, fp, lsl #28
 4bc:	00161e00 	andseq	r1, r6, r0, lsl #28
 4c0:	0e031349 	cdpeq	3, 0, cr1, cr3, cr9, {2}
 4c4:	0b3b0b3a 	bleq	ec31b4 <__start__-0x1f0bce4c>
 4c8:	131f0000 	tstne	pc, #0
 4cc:	0b0e0301 	bleq	3810d8 <__start__-0x1fbfef28>
 4d0:	3b0b3a0b 	blcc	2ced04 <__start__-0x1fcb12fc>
 4d4:	2000000b 	andcs	r0, r0, fp
 4d8:	0e03000d 	cdpeq	0, 0, cr0, cr3, cr13, {0}
 4dc:	0b3a1349 	bleq	e85208 <__start__-0x1f0fadf8>
 4e0:	0b380b3b 	bleq	e031d4 <__start__-0x1f17ce2c>
 4e4:	0f210000 	svceq	0x00210000
 4e8:	00000000 	andeq	r0, r0, r0
 4ec:	25011101 	strcs	r1, [r1, #-257]	; 0xfffffeff
 4f0:	0305130e 	movweq	r1, #21262	; 0x530e
 4f4:	1b17100e 	blne	5c4534 <__start__-0x1f9bbacc>
 4f8:	1201110e 	andne	r1, r1, #-2147483645	; 0x80000003
 4fc:	02000006 	andeq	r0, r0, #6
 500:	0e03012e 	adfeqsp	f0, f3, #0.5
 504:	0b3b0b3a 	bleq	ec31f4 <__start__-0x1f0bce0c>
 508:	13491927 	movtne	r1, #39207	; 0x9927
 50c:	193f193c 	ldmdbne	pc!, {r2, r3, r4, r5, r8, fp, ip}	; <UNPREDICTABLE>
 510:	05030000 	streq	r0, [r3, #-0]
 514:	00134900 	andseq	r4, r3, r0, lsl #18
 518:	00240400 	eoreq	r0, r4, r0, lsl #8
 51c:	0b3e0e03 	bleq	f83d30 <__start__-0x1effc2d0>
 520:	00000b0b 	andeq	r0, r0, fp, lsl #22
 524:	49000f05 	stmdbmi	r0, {r0, r2, r8, r9, sl, fp}
 528:	06000013 			; <UNDEFINED> instruction: 0x06000013
 52c:	13490026 	movtne	r0, #36902	; 0x9026
 530:	13070000 	movwne	r0, #28672	; 0x7000
 534:	0b0e0301 	bleq	381140 <__start__-0x1fbfeec0>
 538:	3b0b3a0b 	blcc	2ced6c <__start__-0x1fcb1294>
 53c:	0800000b 	stmdaeq	r0, {r0, r1, r3}
 540:	0e03000d 	cdpeq	0, 0, cr0, cr3, cr13, {0}
 544:	0b3a1349 	bleq	e85270 <__start__-0x1f0fad90>
 548:	0b380b3b 	bleq	e0323c <__start__-0x1f17cdc4>
 54c:	0f090000 	svceq	0x00090000
 550:	0a000000 	beq	558 <__start__-0x1ff7faa8>
 554:	0e03012e 	adfeqsp	f0, f3, #0.5
 558:	0b3b0b3a 	bleq	ec3248 <__start__-0x1f0bcdb8>
 55c:	193c1927 	ldmdbne	ip!, {r0, r1, r2, r5, r8, fp, ip}
 560:	0000193f 	andeq	r1, r0, pc, lsr r9
 564:	0300340b 	movweq	r3, #1035	; 0x40b
 568:	3a13490e 	bcc	4d29a8 <__start__-0x1faad658>
 56c:	020b3b0b 	andeq	r3, fp, #11264	; 0x2c00
 570:	0c000018 	stceq	0, cr0, [r0], {24}
 574:	13490101 	movtne	r0, #37121	; 0x9101
 578:	210d0000 	mrscs	r0, (UNDEF: 13)
 57c:	37134900 	ldrcc	r4, [r3, -r0, lsl #18]
 580:	0e000005 	cdpeq	0, 0, cr0, cr0, cr5, {0}
 584:	0e030024 	cdpeq	0, 0, cr0, cr3, cr4, {1}
 588:	0b3e0b0b 	bleq	f831bc <__start__-0x1effce44>
 58c:	2e0f0000 	cdpcs	0, 0, cr0, cr15, cr0, {0}
 590:	12011101 	andne	r1, r1, #1073741824	; 0x40000000
 594:	97184006 	ldrls	r4, [r8, -r6]
 598:	0e031942 	vmlseq.f16	s2, s6, s4	; <UNPREDICTABLE>
 59c:	0b3b0b3a 	bleq	ec328c <__start__-0x1f0bcd74>
 5a0:	193f1927 	ldmdbne	pc!, {r0, r1, r2, r5, r8, fp, ip}	; <UNPREDICTABLE>
 5a4:	05100000 	ldreq	r0, [r0, #-0]
 5a8:	03170200 	tsteq	r7, #0, 4
 5ac:	3b0b3a0e 	blcc	2cedec <__start__-0x1fcb1214>
 5b0:	0013490b 	andseq	r4, r3, fp, lsl #18
 5b4:	00341100 	eorseq	r1, r4, r0, lsl #2
 5b8:	0e031802 	cdpeq	8, 0, cr1, cr3, cr2, {0}
 5bc:	0b3b0b3a 	bleq	ec32ac <__start__-0x1f0bcd54>
 5c0:	00001349 	andeq	r1, r0, r9, asr #6
 5c4:	02003412 	andeq	r3, r0, #301989888	; 0x12000000
 5c8:	3a0e0317 	bcc	38122c <__start__-0x1fbfedd4>
 5cc:	490b3b0b 	stmdbmi	fp, {r0, r1, r3, r8, r9, fp, ip, sp}
 5d0:	13000013 	movwne	r0, #19
 5d4:	1755010b 	ldrbne	r0, [r5, -fp, lsl #2]
 5d8:	18140000 	ldmdane	r4, {}	; <UNPREDICTABLE>
 5dc:	15000000 	strne	r0, [r0, #-0]
 5e0:	00018289 	andeq	r8, r1, r9, lsl #5
 5e4:	01111331 	tsteq	r1, r1, lsr r3
 5e8:	16160000 	ldrne	r0, [r6], -r0
 5ec:	03134900 	tsteq	r3, #0, 18
 5f0:	3b0b3a0e 	blcc	2cee30 <__start__-0x1fcb11d0>
 5f4:	0000000b 	andeq	r0, r0, fp
 5f8:	10001101 	andne	r1, r0, r1, lsl #2
 5fc:	12011106 	andne	r1, r1, #-2147483647	; 0x80000001
 600:	1b0e0301 	blne	38120c <__start__-0x1fbfedf4>
 604:	130e250e 	movwne	r2, #58638	; 0xe50e
 608:	00000005 	andeq	r0, r0, r5
 60c:	10001101 	andne	r1, r0, r1, lsl #2
 610:	12011106 	andne	r1, r1, #-2147483647	; 0x80000001
 614:	1b0e0301 	blne	381220 <__start__-0x1fbfede0>
 618:	130e250e 	movwne	r2, #58638	; 0xe50e
 61c:	00000005 	andeq	r0, r0, r5
 620:	10001101 	andne	r1, r0, r1, lsl #2
 624:	12011106 	andne	r1, r1, #-2147483647	; 0x80000001
 628:	1b0e0301 	blne	381234 <__start__-0x1fbfedcc>
 62c:	130e250e 	movwne	r2, #58638	; 0xe50e
 630:	00000005 	andeq	r0, r0, r5

Disassembly of section .debug_line:

00000000 <.debug_line>:
   0:	0000004b 	andeq	r0, r0, fp, asr #32
   4:	00250003 	eoreq	r0, r5, r3
   8:	01020000 	mrseq	r0, (UNDEF: 2)
   c:	000d0efb 	strdeq	r0, [sp], -fp
  10:	01010101 	tsteq	r1, r1, lsl #2
  14:	01000000 	mrseq	r0, (UNDEF: 0)
  18:	63010000 	movwvs	r0, #4096	; 0x1000
  1c:	2f65726f 	svccs	0x0065726f
  20:	00746e69 	rsbseq	r6, r4, r9, ror #28
  24:	746e6900 	strbtvc	r6, [lr], #-2304	; 0xfffff700
  28:	0100532e 	tsteq	r0, lr, lsr #6
  2c:	00000000 	andeq	r0, r0, r0
  30:	00000205 	andeq	r0, r0, r5, lsl #4
  34:	0a031ff8 	beq	c801c <__start__-0x1feb7fe4>
  38:	2f2f2f01 	svccs	0x002f2f01
  3c:	2f2f2f2f 	svccs	0x002f2f2f
  40:	302f2fa6 	eorcc	r2, pc, r6, lsr #31
  44:	03302f2f 	teqeq	r0, #47, 30	; 0xbc
  48:	02022e78 	andeq	r2, r2, #120, 28	; 0x780
  4c:	22010100 	andcs	r0, r1, #0, 2
  50:	04000001 	streq	r0, [r0], #-1
  54:	00004a00 	andeq	r4, r0, r0, lsl #20
  58:	01010100 	mrseq	r0, (UNDEF: 17)
  5c:	000d0efb 	strdeq	r0, [sp], -fp
  60:	01010101 	tsteq	r1, r1, lsl #2
  64:	01000000 	mrseq	r0, (UNDEF: 0)
  68:	2e010000 	cdpcs	0, 0, cr0, cr1, cr0, {0}
  6c:	6f63002e 	svcvs	0x0063002e
  70:	2e006572 	cfrshl64cs	mvdx0, mvdx2, r6
  74:	726f632f 	rsbvc	r6, pc, #-1140850688	; 0xbc000000
  78:	66000065 	strvs	r0, [r0], -r5, rrx
  7c:	2e746e6f 	cdpcs	14, 7, cr6, cr4, cr15, {3}
  80:	00010068 	andeq	r0, r1, r8, rrx
  84:	70797400 	rsbsvc	r7, r9, r0, lsl #8
  88:	682e7365 	stmdavs	lr!, {r0, r2, r5, r6, r8, r9, ip, sp, lr}
  8c:	00000100 	andeq	r0, r0, r0, lsl #2
  90:	632e6266 			; <UNDEFINED> instruction: 0x632e6266
  94:	00000200 	andeq	r0, r0, r0, lsl #4
  98:	6f696d6d 	svcvs	0x00696d6d
  9c:	0300682e 	movweq	r6, #2094	; 0x82e
  a0:	04000000 	streq	r0, [r0], #-0
  a4:	02050003 	andeq	r0, r5, #3
  a8:	1ff80050 	svcne	0x00f80050
  ac:	05011a03 	streq	r1, [r1, #-2563]	; 0xfffff5fd
  b0:	05bd0a02 	ldreq	r0, [sp, #2562]!	; 0xa02
  b4:	62030600 	andvs	r0, r3, #0, 12
  b8:	0302054a 	movweq	r0, #9546	; 0x254a
  bc:	6203821e 	andvs	r8, r3, #-536870911	; 0xe0000001
  c0:	05012c02 	streq	r2, [r1, #-3074]	; 0xfffff3fe
  c4:	ba1e0314 	blt	780d1c <__start__-0x1f7ff2e4>
  c8:	05820205 	streq	r0, [r2, #517]	; 0x205
  cc:	05840612 	streq	r0, [r4, #1554]	; 0x612
  d0:	05054e08 	streq	r4, [r5, #-3592]	; 0xfffff1f8
  d4:	054a7103 	strbeq	r7, [sl, #-259]	; 0xfffffefd
  d8:	49494c08 	stmdbmi	r9, {r3, sl, fp, lr}^
  dc:	054a0f03 	strbeq	r0, [sl, #-3843]	; 0xfffff0fd
  e0:	4a710305 	bmi	1c40cfc <__start__-0x1e33f304>
  e4:	494c0805 	stmdbmi	ip, {r0, r2, fp}^
  e8:	4a0f0349 	bmi	3c0e14 <__start__-0x1fbbf1ec>
  ec:	71030505 	tstvc	r3, r5, lsl #10
  f0:	08057408 	stmdaeq	r5, {r3, sl, ip, sp, lr}
  f4:	84064a06 	strhi	r4, [r6], #-2566	; 0xfffff5fa
  f8:	4a0e0349 	bmi	380e24 <__start__-0x1fbff1dc>
  fc:	71030505 	tstvc	r3, r5, lsl #10
 100:	4c08054a 	cfstr32mi	mvfx0, [r8], {74}	; 0x4a
 104:	0f034949 	svceq	0x00034949
 108:	0305054a 	movweq	r0, #21834	; 0x554a
 10c:	08054a71 	stmdaeq	r5, {r0, r4, r5, r6, r9, fp, lr}
 110:	0349494c 	movteq	r4, #39244	; 0x994c
 114:	05054a0f 	streq	r4, [r5, #-2575]	; 0xfffff5f1
 118:	05827103 	streq	r7, [r2, #259]	; 0x103
 11c:	064a0608 	strbeq	r0, [sl], -r8, lsl #12
 120:	05054984 	streq	r4, [r5, #-2436]	; 0xfffff67c
 124:	06080581 	streq	r0, [r8], -r1, lsl #11
 128:	4b83064a 	blmi	fe0c1a58 <data_abort_handler+0xde0c1a88>
 12c:	054a0d03 	strbeq	r0, [sl, #-3331]	; 0xfffff2fd
 130:	82710305 	rsbshi	r0, r1, #335544320	; 0x14000000
 134:	4a060805 	bmi	182150 <__start__-0x1fdfdeb0>
 138:	03834b06 	orreq	r4, r3, #6144	; 0x1800
 13c:	01054a0d 	tsteq	r5, sp, lsl #20
 140:	580306be 	stmdapl	r3, {r1, r2, r3, r4, r5, r7, r9, sl}
 144:	0600054a 	streq	r0, [r0], -sl, asr #10
 148:	04822b03 	streq	r2, [r2], #2819	; 0xb03
 14c:	0a0c0504 	beq	301564 <__start__-0x1fc7ea9c>
 150:	3c086b03 			; <UNDEFINED> instruction: 0x3c086b03
 154:	4a061505 	bmi	185570 <__start__-0x1fdfaa90>
 158:	05ba0c05 	ldreq	r0, [sl, #3077]!	; 0xc05
 15c:	0c054a15 			; <UNDEFINED> instruction: 0x0c054a15
 160:	4a150582 	bmi	541770 <__start__-0x1fa3e890>
 164:	01050304 	tsteq	r5, r4, lsl #6
 168:	4a190306 	bmi	640d88 <__start__-0x1f93f278>
 16c:	82510306 	subshi	r0, r1, #402653184	; 0x18000000
 170:	01000402 	tsteq	r0, r2, lsl #8
 174:	00024a01 	andeq	r4, r2, r1, lsl #20
 178:	71000400 	tstvc	r0, r0, lsl #8
 17c:	01000000 	mrseq	r0, (UNDEF: 0)
 180:	0efb0101 	cdpeq	1, 15, cr0, cr11, cr1, {0}
 184:	0101000d 	tsteq	r1, sp
 188:	00000101 	andeq	r0, r0, r1, lsl #2
 18c:	00000100 	andeq	r0, r0, r0, lsl #2
 190:	6c2f2e01 	stcvs	14, cr2, [pc], #-4	; 194 <__start__-0x1ff7fe6c>
 194:	2e006269 	cdpcs	2, 0, cr6, cr0, cr9, {3}
 198:	2f2e002e 	svccs	0x002e002e
 19c:	65726f63 	ldrbvs	r6, [r2, #-3939]!	; 0xfffff09d
 1a0:	006d6d2f 	rsbeq	r6, sp, pc, lsr #26
 1a4:	65726f63 	ldrbvs	r6, [r2, #-3939]!	; 0xfffff09d
 1a8:	006d6d2f 	rsbeq	r6, sp, pc, lsr #26
 1ac:	696c2f2e 	stmdbvs	ip!, {r1, r2, r3, r5, r8, r9, sl, fp, sp}^
 1b0:	696c2f62 	stmdbvs	ip!, {r1, r5, r6, r8, r9, sl, fp, sp}^
 1b4:	726f6362 	rsbvc	r6, pc, #-2013265919	; 0x88000001
 1b8:	70000065 	andvc	r0, r0, r5, rrx
 1bc:	746e6972 	strbtvc	r6, [lr], #-2418	; 0xfffff68e
 1c0:	0100682e 	tsteq	r0, lr, lsr #16
 1c4:	79740000 	ldmdbvc	r4!, {}^	; <UNPREDICTABLE>
 1c8:	2e736570 	mrccs	5, 3, r6, cr3, cr0, {3}
 1cc:	00020068 	andeq	r0, r2, r8, rrx
 1d0:	616c7300 	cmnvs	ip, r0, lsl #6
 1d4:	00682e62 	rsbeq	r2, r8, r2, ror #28
 1d8:	73000003 	movwvc	r0, #3
 1dc:	2e62616c 	powcssz	f6, f2, #4.0
 1e0:	00040063 	andeq	r0, r4, r3, rrx
 1e4:	74616d00 	strbtvc	r6, [r1], #-3328	; 0xfffff300
 1e8:	00682e68 	rsbeq	r2, r8, r8, ror #28
 1ec:	00000005 	andeq	r0, r0, r5
 1f0:	05000404 	streq	r0, [r0, #-1028]	; 0xfffffbfc
 1f4:	f801dc02 			; <UNDEFINED> instruction: 0xf801dc02
 1f8:	010f031f 	tsteq	pc, pc, lsl r3	; <UNPREDICTABLE>
 1fc:	020a0205 	andeq	r0, sl, #1342177280	; 0x50000000
 200:	03061530 	movweq	r1, #25904	; 0x6530
 204:	1c05ba6d 			; <UNDEFINED> instruction: 0x1c05ba6d
 208:	4a150306 	bmi	540e28 <__start__-0x1fa3f1d8>
 20c:	4a060c05 	bmi	183228 <__start__-0x1fdfcdd8>
 210:	054a1305 	strbeq	r1, [sl, #-773]	; 0xfffffcfb
 214:	05be0627 	ldreq	r0, [lr, #1575]!	; 0x627
 218:	2705b611 	smladcs	r5, r1, r6, fp
 21c:	6703064e 	strvs	r0, [r3, -lr, asr #12]
 220:	0603054a 	streq	r0, [r3], -sl, asr #10
 224:	054a1a03 	strbeq	r1, [sl, #-2563]	; 0xfffff5fd
 228:	03054511 	movweq	r4, #21777	; 0x5511
 22c:	4716054f 	ldrmi	r0, [r6, -pc, asr #10]
 230:	05491705 	strbeq	r1, [r9, #-1797]	; 0xfffff8fb
 234:	05834e03 	streq	r4, [r3, #3587]	; 0xe03
 238:	65030600 	strvs	r0, [r3, #-1536]	; 0xfffffa00
 23c:	06180582 	ldreq	r0, [r8], -r2, lsl #11
 240:	05f21d03 	ldrbeq	r1, [r2, #3331]!	; 0xd03
 244:	1505482a 	strne	r4, [r5, #-2090]	; 0xfffff7d6
 248:	03054a06 	movweq	r4, #23046	; 0x5a06
 24c:	0602054a 	streq	r0, [r2], -sl, asr #10
 250:	061a05bf 			; <UNDEFINED> instruction: 0x061a05bf
 254:	4a02054a 	bmi	81784 <__start__-0x1fefe87c>
 258:	04ba6003 	ldrteq	r6, [sl], #3
 25c:	06000505 	streq	r0, [r0], -r5, lsl #10
 260:	05ba0903 	ldreq	r0, [sl, #2307]!	; 0x903
 264:	06840a06 	streq	r0, [r4], r6, lsl #20
 268:	05827503 	streq	r7, [r2, #1283]	; 0x503
 26c:	0e03061c 	mcreq	6, 0, r0, cr3, cr12, {0}
 270:	0609054a 	streq	r0, [r9], -sl, asr #10
 274:	03000582 	movweq	r0, #1410	; 0x582
 278:	06054a72 			; <UNDEFINED> instruction: 0x06054a72
 27c:	4a0f0306 	bmi	3c0e9c <__start__-0x1fbbf164>
 280:	0b030105 	bleq	c069c <__start__-0x1febf964>
 284:	4507054a 	strmi	r0, [r7, #-1354]	; 0xfffffab6
 288:	05831705 	streq	r1, [r3, #1797]	; 0x705
 28c:	03064e01 	movweq	r4, #28161	; 0x6e01
 290:	1a034a66 	bne	d2c30 <__start__-0x1fead3d0>
 294:	0619054a 	ldreq	r0, [r9], -sl, asr #10
 298:	4c010548 	cfstr32mi	mvfx0, [r1], {72}	; 0x48
 29c:	00050404 	andeq	r0, r5, r4, lsl #8
 2a0:	054a0a03 	strbeq	r0, [sl, #-2563]	; 0xfffff5fd
 2a4:	05850a10 	streq	r0, [r5, #2576]	; 0xa10
 2a8:	05ba0607 	ldreq	r0, [sl, #1543]!	; 0x607
 2ac:	07058210 	smladeq	r5, r0, r2, r8
 2b0:	82590382 	subshi	r0, r9, #134217730	; 0x8000002
 2b4:	27031005 	strcs	r1, [r3, -r5]
 2b8:	4a0705ba 	bmi	1c19a8 <__start__-0x1fdbe658>
 2bc:	05825903 	streq	r5, [r2, #2307]	; 0x903
 2c0:	ba270310 	blt	9c0f08 <__start__-0x1f5bf0f8>
 2c4:	034a0705 	movteq	r0, #42757	; 0xa705
 2c8:	10058259 	andne	r8, r5, r9, asr r2
 2cc:	05ba2703 	ldreq	r2, [sl, #1795]!	; 0x703
 2d0:	59034a07 	stmdbpl	r3, {r0, r1, r2, r9, fp, lr}
 2d4:	03100582 	tsteq	r0, #545259520	; 0x20800000
 2d8:	0705ba27 	streq	fp, [r5, -r7, lsr #20]
 2dc:	8259034a 	subshi	r0, r9, #671088641	; 0x28000001
 2e0:	27031005 	strcs	r1, [r3, -r5]
 2e4:	4a0705ba 	bmi	1c19d4 <__start__-0x1fdbe62c>
 2e8:	05825903 	streq	r5, [r2, #2307]	; 0x903
 2ec:	ba270310 	blt	9c0f34 <__start__-0x1f5bf0cc>
 2f0:	034a0705 	movteq	r0, #42757	; 0xa705
 2f4:	10058259 	andne	r8, r5, r9, asr r2
 2f8:	05ba2703 	ldreq	r2, [sl, #1795]!	; 0x703
 2fc:	59034a07 	stmdbpl	r3, {r0, r1, r2, r9, fp, lr}
 300:	03100582 	tsteq	r0, #545259520	; 0x20800000
 304:	0705ba27 	streq	fp, [r5, -r7, lsr #20]
 308:	82590382 	subshi	r0, r9, #134217730	; 0x8000002
 30c:	03061005 	movweq	r1, #24581	; 0x6005
 310:	0705822a 	streq	r8, [r5, -sl, lsr #4]
 314:	0105ba06 	tsteq	r5, r6, lsl #20
 318:	82120306 	andshi	r0, r2, #402653184	; 0x18000000
 31c:	2c033505 	cfstr32cs	mvfx3, [r3], {5}
 320:	0628054a 	strteq	r0, [r8], -sl, asr #10
 324:	8226054a 	eorhi	r0, r6, #310378496	; 0x12800000
 328:	83060205 	movwhi	r0, #25093	; 0x6205
 32c:	06f60705 	ldrbteq	r0, [r6], r5, lsl #14
 330:	0629054a 	strteq	r0, [r9], -sl, asr #10
 334:	0602057e 			; <UNDEFINED> instruction: 0x0602057e
 338:	7f97034a 	svcvc	0x0097034a
 33c:	06170582 	ldreq	r0, [r7], -r2, lsl #11
 340:	054a3203 	strbeq	r3, [sl, #-515]	; 0xfffffdfd
 344:	820a0301 	andhi	r0, sl, #67108864	; 0x4000000
 348:	06451a05 	strbeq	r1, [r5], -r5, lsl #20
 34c:	034a4903 	movteq	r4, #43267	; 0xa903
 350:	01054a37 	tsteq	r5, r7, lsr sl
 354:	03064f06 	movweq	r4, #28422	; 0x6f06
 358:	00058244 	andeq	r8, r5, r4, asr #4
 35c:	4a3f0306 	bmi	fc0f7c <__start__-0x1efbf084>
 360:	830a0b05 	movwhi	r0, #43781	; 0xab05
 364:	82400306 	subhi	r0, r0, #402653184	; 0x18000000
 368:	ba00c003 	blt	3037c <__start__-0x1ff4fc84>
 36c:	054a4003 	strbeq	r4, [sl, #-3]
 370:	cc030619 	stcgt	6, cr0, [r3], {25}
 374:	05740800 	ldrbeq	r0, [r4, #-2048]!	; 0xfffff800
 378:	4a770302 	bmi	1dc0f88 <__start__-0x1e1bf078>
 37c:	05bc1005 	ldreq	r1, [ip, #5]!
 380:	bb030600 	bllt	c1b88 <__start__-0x1febe478>
 384:	10054a7f 	andne	r4, r5, pc, ror sl
 388:	4a00c503 	bmi	3179c <__start__-0x1ff4e864>
 38c:	054a0705 	strbeq	r0, [sl, #-1797]	; 0xfffff8fb
 390:	12030628 	andne	r0, r3, #40, 12	; 0x2800000
 394:	06260582 	strteq	r0, [r6], -r2, lsl #11
 398:	060205ba 			; <UNDEFINED> instruction: 0x060205ba
 39c:	a8030683 	stmdage	r3, {r0, r1, r7, r9, sl}
 3a0:	0705827f 	smlsdxeq	r5, pc, r2, r8	; <UNPREDICTABLE>
 3a4:	00dc0306 	sbcseq	r0, ip, r6, lsl #6
 3a8:	054a064a 	strbeq	r0, [sl, #-1610]	; 0xfffff9b6
 3ac:	057e0629 	ldrbeq	r0, [lr, #-1577]!	; 0xfffff9d7
 3b0:	054a0602 	strbeq	r0, [sl, #-1538]	; 0xfffff9fe
 3b4:	76030601 	strvc	r0, [r3], -r1, lsl #12
 3b8:	b2030682 	andlt	r0, r3, #136314880	; 0x8200000
 3bc:	04024a7f 	streq	r4, [r2], #-2687	; 0xfffff581
 3c0:	a3010100 	movwge	r0, #4352	; 0x1100
 3c4:	04000000 	streq	r0, [r0], #-0
 3c8:	00004900 	andeq	r4, r0, r0, lsl #18
 3cc:	01010100 	mrseq	r0, (UNDEF: 17)
 3d0:	000d0efb 	strdeq	r0, [sp], -fp
 3d4:	01010101 	tsteq	r1, r1, lsl #2
 3d8:	01000000 	mrseq	r0, (UNDEF: 0)
 3dc:	2e010000 	cdpcs	0, 0, cr0, cr1, cr0, {0}
 3e0:	62696c2f 	rsbvs	r6, r9, #12032	; 0x2f00
 3e4:	632f2e00 			; <UNDEFINED> instruction: 0x632f2e00
 3e8:	2f65726f 	svccs	0x0065726f
 3ec:	00006d6d 	andeq	r6, r0, sp, ror #26
 3f0:	6e697270 	mcrvs	2, 3, r7, cr9, cr0, {3}
 3f4:	00682e74 	rsbeq	r2, r8, r4, ror lr
 3f8:	73000001 	movwvc	r0, #1
 3fc:	2e62616c 	powcssz	f6, f2, #4.0
 400:	00020068 	andeq	r0, r2, r8, rrx
 404:	6d726100 	ldfvse	f6, [r2, #-0]
 408:	6d2d3131 	stfvss	f3, [sp, #-196]!	; 0xffffff3c
 40c:	2e6e6961 	vnmulcs.f16	s13, s28, s3	; <UNPREDICTABLE>
 410:	00000063 	andeq	r0, r0, r3, rrx
 414:	03040000 	movweq	r0, #16384	; 0x4000
 418:	a0020500 	andge	r0, r2, r0, lsl #10
 41c:	181fffff 	ldmdane	pc, {r0, r1, r2, r3, r4, r5, r6, r7, r8, r9, sl, fp, ip, sp, lr, pc}	; <UNPREDICTABLE>
 420:	830a0205 	movwhi	r0, #41477	; 0xa205
 424:	77030683 	strvc	r0, [r3, -r3, lsl #13]
 428:	0600054a 	streq	r0, [r0], -sl, asr #10
 42c:	054a0f03 	strbeq	r0, [sl, #-3843]	; 0xfffff0fd
 430:	83830a02 	orrhi	r0, r3, #8192	; 0x2000
 434:	4a6f0306 	bmi	1bc1054 <__start__-0x1e3befac>
 438:	03060005 	movweq	r0, #24581	; 0x6005
 43c:	02054a17 	andeq	r4, r5, #94208	; 0x17000
 440:	0683830a 	streq	r8, [r3], sl, lsl #6
 444:	024a6703 	subeq	r6, sl, #786432	; 0xc0000
 448:	01010004 	tsteq	r1, r4
 44c:	05000304 	streq	r0, [r0, #-772]	; 0xfffffcfc
 450:	f8051002 			; <UNDEFINED> instruction: 0xf8051002
 454:	011f031f 	tsteq	pc, pc, lsl r3	; <UNPREDICTABLE>
 458:	830a0205 	movwhi	r0, #41477	; 0xa205
 45c:	4b49844d 	blmi	1261598 <__start__-0x1ed1ea68>
 460:	5803064c 	stmdapl	r3, {r2, r3, r6, r9, sl}
 464:	0008024a 	andeq	r0, r8, sl, asr #4
 468:	055f0101 	ldrbeq	r0, [pc, #-257]	; 36f <__start__-0x1ff7fc91>
 46c:	00040000 	andeq	r0, r4, r0
 470:	0000005f 	andeq	r0, r0, pc, asr r0
 474:	fb010101 	blx	40882 <__start__-0x1ff3f77e>
 478:	01000d0e 	tsteq	r0, lr, lsl #26
 47c:	00010101 	andeq	r0, r1, r1, lsl #2
 480:	00010000 	andeq	r0, r1, r0
 484:	696c0100 	stmdbvs	ip!, {r8}^
 488:	696c2f62 	stmdbvs	ip!, {r1, r5, r6, r8, r9, sl, fp, sp}^
 48c:	726f6362 	rsbvc	r6, pc, #-2013265919	; 0x88000001
 490:	752f0065 	strvc	r0, [pc, #-101]!	; 433 <__start__-0x1ff7fbcd>
 494:	6c2f7273 	sfmvs	f7, 4, [pc], #-460	; 2d0 <__start__-0x1ff7fd30>
 498:	6c2f6269 	sfmvs	f6, 4, [pc], #-420	; 2fc <__start__-0x1ff7fd04>
 49c:	2d6d766c 	stclcs	6, cr7, [sp, #-432]!	; 0xfffffe50
 4a0:	6c2f3031 	stcvs	0, cr3, [pc], #-196	; 3e4 <__start__-0x1ff7fc1c>
 4a4:	632f6269 			; <UNDEFINED> instruction: 0x632f6269
 4a8:	676e616c 	strbvs	r6, [lr, -ip, ror #2]!
 4ac:	2e30312f 	rsfcssp	f3, f0, #10.0
 4b0:	2f302e30 	svccs	0x00302e30
 4b4:	6c636e69 	stclvs	14, cr6, [r3], #-420	; 0xfffffe5c
 4b8:	00656475 	rsbeq	r6, r5, r5, ror r4
 4bc:	746d6600 	strbtvc	r6, [sp], #-1536	; 0xfffffa00
 4c0:	0100632e 	tsteq	r0, lr, lsr #6
 4c4:	74730000 	ldrbtvc	r0, [r3], #-0
 4c8:	67726164 	ldrbvs	r6, [r2, -r4, ror #2]!
 4cc:	0200682e 	andeq	r6, r0, #3014656	; 0x2e0000
 4d0:	00000000 	andeq	r0, r0, r0
 4d4:	053c0205 	ldreq	r0, [ip, #-517]!	; 0xfffffdfb
 4d8:	0c031ff8 	stceq	15, cr1, [r3], {248}	; 0xf8
 4dc:	0a1d0501 	beq	7418e8 <__start__-0x1f83e718>
 4e0:	06160501 	ldreq	r0, [r6], -r1, lsl #10
 4e4:	0600054a 	streq	r0, [r0], -sl, asr #10
 4e8:	0a060585 	beq	181b04 <__start__-0x1fdfe4fc>
 4ec:	bd01054b 	cfstr32lt	mvfx0, [r1, #-300]	; 0xfffffed4
 4f0:	05850005 	streq	r0, [r5, #5]
 4f4:	72030a09 	andvc	r0, r3, #36864	; 0x9000
 4f8:	06000582 	streq	r0, [r0], -r2, lsl #11
 4fc:	05827703 	streq	r7, [r2, #1795]	; 0x703
 500:	4a090302 	bmi	241110 <__start__-0x1fd3eef0>
 504:	05827703 	streq	r7, [r2, #1795]	; 0x703
 508:	0a030604 	beq	c1d20 <__start__-0x1febe2e0>
 50c:	4902054a 	stmdbmi	r2, {r1, r3, r6, r8, sl}
 510:	4a060905 	bmi	18292c <__start__-0x1fdfd6d4>
 514:	054a0205 	strbeq	r0, [sl, #-517]	; 0xfffffdfb
 518:	1303061a 	movwne	r0, #13850	; 0x361a
 51c:	06020582 	streq	r0, [r2], -r2, lsl #11
 520:	0604054a 	streq	r0, [r4], -sl, asr #10
 524:	4602054e 	strmi	r0, [r2], -lr, asr #10
 528:	054e0405 	strbeq	r0, [lr, #-1029]	; 0xfffffbfb
 52c:	12054919 	andne	r4, r5, #409600	; 0x64000
 530:	4502054c 	strmi	r0, [r2, #-1356]	; 0xfffffab4
 534:	4a640306 	bmi	1901154 <__start__-0x1e67eeac>
 538:	03060405 	movweq	r0, #25605	; 0x6405
 53c:	0a054a20 	beq	152dc4 <__start__-0x1fe2d23c>
 540:	4b190548 	blmi	641a68 <__start__-0x1f93e598>
 544:	054c1205 	strbeq	r1, [ip, #-517]	; 0xfffffdfb
 548:	5f030600 	svcpl	0x00030600
 54c:	0637054a 	ldrteq	r0, [r7], -sl, asr #10
 550:	054a1c03 	strbeq	r1, [sl, #-3075]	; 0xfffff3fd
 554:	054a0602 	strbeq	r0, [sl, #-1538]	; 0xfffff9fe
 558:	6d030609 	stcvs	6, cr0, [r3, #-36]	; 0xffffffdc
 55c:	06000582 	streq	r0, [r0], -r2, lsl #11
 560:	054a7703 	strbeq	r7, [sl, #-1795]	; 0xfffff8fd
 564:	4a090302 	bmi	241174 <__start__-0x1fd3ee8c>
 568:	05f20905 	ldrbeq	r0, [r2, #2309]!	; 0x905
 56c:	054b0604 	strbeq	r0, [fp, #-1540]	; 0xfffff9fc
 570:	1b054902 	blne	152980 <__start__-0x1fe2d680>
 574:	05821c03 	streq	r1, [r2, #3075]	; 0xc03
 578:	00054c02 	andeq	r4, r5, r2, lsl #24
 57c:	54030a4f 	strpl	r0, [r3], #-2639	; 0xfffff5b1
 580:	030205f2 	movweq	r0, #9714	; 0x25f2
 584:	03064a31 	movweq	r4, #27185	; 0x6a31
 588:	0705824f 	streq	r8, [r5, -pc, asr #4]
 58c:	ba3d0306 	blt	f411ac <__start__-0x1f03ee54>
 590:	ba430306 	blt	10c11b0 <__start__-0x1eebee50>
 594:	4a340306 	bmi	d011b4 <__start__-0x1f27ee4c>
 598:	3e081305 	cdpcc	3, 0, cr1, cr8, cr5, {0}
 59c:	03060005 	movweq	r0, #24581	; 0x6005
 5a0:	02054a4a 	andeq	r4, r5, #303104	; 0x4a000
 5a4:	4a310306 	bmi	c411c4 <__start__-0x1f33ee3c>
 5a8:	0f030f05 	svceq	0x00030f05
 5ac:	09057408 	stmdbeq	r5, {r3, sl, ip, sp, lr}
 5b0:	054a4903 	strbeq	r4, [sl, #-2307]	; 0xfffff6fd
 5b4:	034a0602 	movteq	r0, #42498	; 0xa602
 5b8:	04058277 	streq	r8, [r5], #-631	; 0xfffffd89
 5bc:	4a0a0306 	bmi	2811dc <__start__-0x1fcfee24>
 5c0:	05490205 	strbeq	r0, [r9, #-517]	; 0xfffffdfb
 5c4:	054a0609 	strbeq	r0, [sl, #-1545]	; 0xfffff9f7
 5c8:	1a054a02 	bne	152dd8 <__start__-0x1fe2d228>
 5cc:	82130306 	andshi	r0, r3, #402653184	; 0x18000000
 5d0:	4a060205 	bmi	180dec <__start__-0x1fdff214>
 5d4:	4e060405 	cdpmi	4, 0, cr0, cr6, cr5, {0}
 5d8:	05460205 	strbeq	r0, [r6, #-517]	; 0xfffffdfb
 5dc:	19054e04 	stmdbne	r5, {r2, r9, sl, fp, lr}
 5e0:	4c120549 	cfldr32mi	mvfx0, [r2], {73}	; 0x49
 5e4:	06450205 	strbeq	r0, [r5], -r5, lsl #4
 5e8:	054a6403 	strbeq	r6, [sl, #-1027]	; 0xfffffbfd
 5ec:	20030604 	andcs	r0, r3, r4, lsl #12
 5f0:	480a054a 	stmdami	sl, {r1, r3, r6, r8, sl}
 5f4:	054b1905 	strbeq	r1, [fp, #-2309]	; 0xfffff6fb
 5f8:	00054c12 	andeq	r4, r5, r2, lsl ip
 5fc:	4a5f0306 	bmi	17c121c <__start__-0x1e7bede4>
 600:	03063705 	movweq	r3, #26373	; 0x6705
 604:	02054a1c 	andeq	r4, r5, #28, 20	; 0x1c000
 608:	09054a06 	stmdbeq	r5, {r1, r2, r9, fp, lr}
 60c:	826d0306 	rsbhi	r0, sp, #402653184	; 0x18000000
 610:	4a060205 	bmi	180e2c <__start__-0x1fdff1d4>
 614:	05f20905 	ldrbeq	r0, [r2, #2309]!	; 0x905
 618:	054b0604 	strbeq	r0, [fp, #-1540]	; 0xfffff9fc
 61c:	03064902 	movweq	r4, #26882	; 0x6902
 620:	1b058277 	blne	161004 <__start__-0x1fe1effc>
 624:	4a250306 	bmi	941244 <__start__-0x1f63edbc>
 628:	1d030105 	stfnes	f0, [r3, #-20]	; 0xffffffec
 62c:	4d00054a 	cfstr32mi	mvfx0, [r0, #-296]	; 0xfffffed8
 630:	bd0a0205 	sfmlt	f0, 4, [sl, #-20]	; 0xffffffec
 634:	7fb80306 	svcvc	0x00b80306
 638:	00c80382 	sbceq	r0, r8, r2, lsl #7
 63c:	7fb80382 	svcvc	0x00b80382
 640:	031d0582 	tsteq	sp, #545259520	; 0x20800000
 644:	740800c8 	strvc	r0, [r8], #-200	; 0xffffff38
 648:	054a0205 	strbeq	r0, [sl, #-517]	; 0xfffffdfb
 64c:	0584060b 	streq	r0, [r4, #1547]	; 0x60b
 650:	054a0603 	strbeq	r0, [sl, #-1539]	; 0xfffff9fd
 654:	e503060b 	str	r0, [r3, #-1547]	; 0xfffff9f5
 658:	064bf200 	strbeq	pc, [fp], -r0, lsl #4	; <UNPREDICTABLE>
 65c:	4a7ed003 	bmi	1fb4670 <__start__-0x1dfcb990>
 660:	03061205 	movweq	r1, #25093	; 0x6205
 664:	054a00ce 	strbeq	r0, [sl, #-206]	; 0xffffff32
 668:	054a060c 	strbeq	r0, [sl, #-1548]	; 0xfffff9f4
 66c:	b2034a04 	andlt	r4, r3, #4, 20	; 0x4000
 670:	0f05ba7f 	svceq	0x0005ba7f
 674:	00e50306 	rsceq	r0, r5, r6, lsl #6
 678:	01018c02 	tsteq	r1, r2, lsl #24
 67c:	064b0905 	strbeq	r0, [fp], -r5, lsl #18
 680:	827f9a03 	rsbshi	r9, pc, #12288	; 0x3000
 684:	03060705 	movweq	r0, #26373	; 0x6705
 688:	0205823d 	andeq	r8, r5, #-805306365	; 0xd0000003
 68c:	054a7403 	strbeq	r7, [sl, #-1027]	; 0xfffffbfd
 690:	4a0c0307 	bmi	3012b4 <__start__-0x1fc7ed4c>
 694:	82430306 	subhi	r0, r3, #402653184	; 0x18000000
 698:	82340306 	eorshi	r0, r4, #402653184	; 0x18000000
 69c:	054c1305 	strbeq	r1, [ip, #-773]	; 0xfffffcfb
 6a0:	4a030600 	bmi	c1ea8 <__start__-0x1febe158>
 6a4:	0602054a 	streq	r0, [r2], -sl, asr #10
 6a8:	054a3103 	strbeq	r3, [sl, #-259]	; 0xfffffefd
 6ac:	4f030600 	svcmi	0x00030600
 6b0:	0302054a 	movweq	r0, #9546	; 0x254a
 6b4:	09054a31 	stmdbeq	r5, {r0, r4, r5, r9, fp, lr}
 6b8:	f2580306 	vcgt.s16	d16, d8, d6
 6bc:	4a770306 	bmi	1dc12dc <__start__-0x1e1bed24>
 6c0:	09030205 	stmdbeq	r3, {r0, r2, r9}
 6c4:	060f0582 	streq	r0, [pc], -r2, lsl #11
 6c8:	054a3703 	strbeq	r3, [sl, #-1795]	; 0xfffff8fd
 6cc:	4a490302 	bmi	12412dc <__start__-0x1ed3ed24>
 6d0:	4a770306 	bmi	1dc12f0 <__start__-0x1e1bed10>
 6d4:	03060405 	movweq	r0, #25605	; 0x6405
 6d8:	09054a0a 	stmdbeq	r5, {r1, r3, r9, fp, lr}
 6dc:	06020581 	streq	r0, [r2], -r1, lsl #11
 6e0:	1303064a 	movwne	r0, #13898	; 0x364a
 6e4:	86040582 	strhi	r0, [r4], -r2, lsl #11
 6e8:	05460205 	strbeq	r0, [r6, #-517]	; 0xfffffdfb
 6ec:	19054e04 	stmdbne	r5, {r2, r9, sl, fp, lr}
 6f0:	4c120549 	cfldr32mi	mvfx0, [r2], {73}	; 0x49
 6f4:	05450205 	strbeq	r0, [r5, #-517]	; 0xfffffdfb
 6f8:	0a05be04 	beq	16ff10 <__start__-0x1fe100f0>
 6fc:	4b190548 	blmi	641c24 <__start__-0x1f93e3dc>
 700:	054c1205 	strbeq	r1, [ip, #-517]	; 0xfffffdfb
 704:	5f030600 	svcpl	0x00030600
 708:	0637054a 	ldrteq	r0, [r7], -sl, asr #10
 70c:	054a1c03 	strbeq	r1, [sl, #-3075]	; 0xfffff3fd
 710:	054a0602 	strbeq	r0, [sl, #-1538]	; 0xfffff9fe
 714:	6d030609 	stcvs	6, cr0, [r3, #-36]	; 0xffffffdc
 718:	06020582 	streq	r0, [r2], -r2, lsl #11
 71c:	8277034a 	rsbshi	r0, r7, #671088641	; 0x28000001
 720:	09030905 	stmdbeq	r3, {r0, r2, r8, fp}
 724:	0604054a 	streq	r0, [r4], -sl, asr #10
 728:	4902054b 	stmdbmi	r2, {r0, r1, r3, r6, r8, sl}
 72c:	1c031b05 			; <UNDEFINED> instruction: 0x1c031b05
 730:	03090582 	movweq	r0, #38274	; 0x9582
 734:	02054a64 	andeq	r4, r5, #100, 20	; 0x64000
 738:	77034a06 	strvc	r4, [r3, -r6, lsl #20]
 73c:	03090582 	movweq	r0, #38274	; 0x9582
 740:	02054a09 	andeq	r4, r5, #36864	; 0x9000
 744:	ba770382 	blt	1dc1554 <__start__-0x1e1beaac>
 748:	03060e05 	movweq	r0, #28165	; 0x6e05
 74c:	054a00f2 	strbeq	r0, [sl, #-242]	; 0xffffff0e
 750:	03064906 	movweq	r4, #26886	; 0x6906
 754:	05ba7f8f 	ldreq	r7, [sl, #3983]!	; 0xf8f
 758:	f2030610 	vmin.s8	d0, d3, d0
 75c:	0e054a00 	vmlaeq.f32	s8, s10, s0
 760:	18054a06 	stmdane	r5, {r1, r2, r9, fp, lr}
 764:	06054906 	streq	r4, [r5], -r6, lsl #18
 768:	0f054a06 	svceq	0x00054a06
 76c:	ba220306 	blt	88138c <__start__-0x1f6fec74>
 770:	064c0905 	strbeq	r0, [ip], -r5, lsl #18
 774:	827eeb03 	rsbshi	lr, lr, #3072	; 0xc00
 778:	03060705 	movweq	r0, #26373	; 0x6705
 77c:	77034a3d 	smladxvc	r3, sp, sl, r4
 780:	060005f2 			; <UNDEFINED> instruction: 0x060005f2
 784:	05f24c03 	ldrbeq	r4, [r2, #3075]!	; 0xc03
 788:	31030602 	tstcc	r3, r2, lsl #12
 78c:	4f13054a 	svcmi	0x0013054a
 790:	05450205 	strbeq	r0, [r5, #-517]	; 0xfffffdfb
 794:	4f030600 	svcmi	0x00030600
 798:	0302054a 	movweq	r0, #9546	; 0x254a
 79c:	0905f231 	stmdbeq	r5, {r0, r4, r5, r9, ip, sp, lr, pc}
 7a0:	82580306 	subshi	r0, r8, #402653184	; 0x18000000
 7a4:	4a770306 	bmi	1dc13c4 <__start__-0x1e1bec3c>
 7a8:	09030205 	stmdbeq	r3, {r0, r2, r9}
 7ac:	060f0582 	streq	r0, [pc], -r2, lsl #11
 7b0:	054a3703 	strbeq	r3, [sl, #-1795]	; 0xfffff8fd
 7b4:	4a490302 	bmi	12413c4 <__start__-0x1ed3ec3c>
 7b8:	4a770306 	bmi	1dc13d8 <__start__-0x1e1bec28>
 7bc:	03060405 	movweq	r0, #25605	; 0x6405
 7c0:	09054a0a 	stmdbeq	r5, {r1, r3, r9, fp, lr}
 7c4:	06020581 	streq	r0, [r2], -r1, lsl #11
 7c8:	1303064a 	movwne	r0, #13898	; 0x364a
 7cc:	86040582 	strhi	r0, [r4], -r2, lsl #11
 7d0:	05460205 	strbeq	r0, [r6, #-517]	; 0xfffffdfb
 7d4:	19054e04 	stmdbne	r5, {r2, r9, sl, fp, lr}
 7d8:	4c120549 	cfldr32mi	mvfx0, [r2], {73}	; 0x49
 7dc:	05450205 	strbeq	r0, [r5, #-517]	; 0xfffffdfb
 7e0:	0a05be04 	beq	16fff8 <__start__-0x1fe10008>
 7e4:	4b190548 	blmi	641d0c <__start__-0x1f93e2f4>
 7e8:	054c1205 	strbeq	r1, [ip, #-517]	; 0xfffffdfb
 7ec:	5f030600 	svcpl	0x00030600
 7f0:	0637054a 	ldrteq	r0, [r7], -sl, asr #10
 7f4:	054a1c03 	strbeq	r1, [sl, #-3075]	; 0xfffff3fd
 7f8:	054a0602 	strbeq	r0, [sl, #-1538]	; 0xfffff9fe
 7fc:	6d030609 	stcvs	6, cr0, [r3, #-36]	; 0xffffffdc
 800:	06020582 	streq	r0, [r2], -r2, lsl #11
 804:	8277034a 	rsbshi	r0, r7, #671088641	; 0x28000001
 808:	09030905 	stmdbeq	r3, {r0, r2, r8, fp}
 80c:	0604054a 	streq	r0, [r4], -sl, asr #10
 810:	4902054b 	stmdbmi	r2, {r0, r1, r3, r6, r8, sl}
 814:	c8030e05 	stmdagt	r3, {r0, r2, r9, sl, fp}
 818:	0005ba00 	andeq	fp, r5, r0, lsl #20
 81c:	7faf0306 	svcvc	0x00af0306
 820:	030c054a 	movweq	r0, #50506	; 0xc54a
 824:	034a00d1 	movteq	r0, #41169	; 0xa0d1
 828:	054a7faf 	strbeq	r7, [sl, #-4015]	; 0xfffff051
 82c:	d8030611 	stmdale	r3, {r0, r4, r9, sl}
 830:	09054a00 	stmdbeq	r5, {r9, fp, lr}
 834:	4a7fb103 	bmi	1fecc48 <__start__-0x1df933b8>
 838:	4a060205 	bmi	181054 <__start__-0x1fdfefac>
 83c:	05f20905 	ldrbeq	r0, [r2, #2309]!	; 0x905
 840:	0d058202 	sfmeq	f0, 1, [r5, #-8]
 844:	00d20306 	sbcseq	r0, r2, r6, lsl #6
 848:	490505ba 	stmdbmi	r5, {r1, r3, r4, r5, r7, r8, sl}
 84c:	7fa60306 	svcvc	0x00a60306
 850:	060f05ba 			; <UNDEFINED> instruction: 0x060f05ba
 854:	4a00db03 	bmi	37468 <__start__-0x1ff48b98>
 858:	4a060d05 	bmi	183c74 <__start__-0x1fdfc38c>
 85c:	49061705 	stmdbmi	r6, {r0, r2, r8, r9, sl, ip}
 860:	4a060505 	bmi	181c7c <__start__-0x1fdfe384>
 864:	85060d05 	strhi	r0, [r6, #-3333]	; 0xfffff2fb
 868:	7fa30306 	svcvc	0x00a30306
 86c:	060f0582 	streq	r0, [pc], -r2, lsl #11
 870:	4a00fc03 	bmi	3f884 <__start__-0x1ff4077c>
 874:	064b0905 	strbeq	r0, [fp], -r5, lsl #18
 878:	827f8303 	rsbshi	r8, pc, #201326592	; 0xc000000
 87c:	03060705 	movweq	r0, #26373	; 0x6705
 880:	7703823d 	smladxvc	r3, sp, r2, r8
 884:	060005f2 			; <UNDEFINED> instruction: 0x060005f2
 888:	05ba4c03 	ldreq	r4, [sl, #3075]!	; 0xc03
 88c:	4a340307 	bmi	d014b0 <__start__-0x1f27eb50>
 890:	47060205 	strmi	r0, [r6, -r5, lsl #4]
 894:	054f1305 	strbeq	r1, [pc, #-773]	; 597 <__start__-0x1ff7fa69>
 898:	00054502 	andeq	r4, r5, r2, lsl #10
 89c:	4a4f0306 	bmi	13c14bc <__start__-0x1ebbeb44>
 8a0:	31030205 	tstcc	r3, r5, lsl #4
 8a4:	060905f2 			; <UNDEFINED> instruction: 0x060905f2
 8a8:	06825803 	streq	r5, [r2], r3, lsl #16
 8ac:	054a7703 	strbeq	r7, [sl, #-1795]	; 0xfffff8fd
 8b0:	82090302 	andhi	r0, r9, #134217728	; 0x8000000
 8b4:	03060f05 	movweq	r0, #28421	; 0x6f05
 8b8:	02054a37 	andeq	r4, r5, #225280	; 0x37000
 8bc:	064a4903 	strbeq	r4, [sl], -r3, lsl #18
 8c0:	054a7703 	strbeq	r7, [sl, #-1795]	; 0xfffff8fd
 8c4:	0a030604 	beq	c20dc <__start__-0x1febdf24>
 8c8:	8109054a 	tsthi	r9, sl, asr #10
 8cc:	4a060205 	bmi	1810e8 <__start__-0x1fdfef18>
 8d0:	82130306 	andshi	r0, r3, #402653184	; 0x18000000
 8d4:	05860405 	streq	r0, [r6, #1029]	; 0x405
 8d8:	04054602 	streq	r4, [r5], #-1538	; 0xfffff9fe
 8dc:	4919054e 	ldmdbmi	r9, {r1, r2, r3, r6, r8, sl}
 8e0:	054c1205 	strbeq	r1, [ip, #-517]	; 0xfffffdfb
 8e4:	04054502 	streq	r4, [r5], #-1282	; 0xfffffafe
 8e8:	480a05be 	stmdami	sl, {r1, r2, r3, r4, r5, r7, r8, sl}
 8ec:	054b1905 	strbeq	r1, [fp, #-2309]	; 0xfffff6fb
 8f0:	00054c12 	andeq	r4, r5, r2, lsl ip
 8f4:	4a5f0306 	bmi	17c1514 <__start__-0x1e7beaec>
 8f8:	03063705 	movweq	r3, #26373	; 0x6705
 8fc:	02054a1c 	andeq	r4, r5, #28, 20	; 0x1c000
 900:	09054a06 	stmdbeq	r5, {r1, r2, r9, fp, lr}
 904:	826d0306 	rsbhi	r0, sp, #402653184	; 0x18000000
 908:	4a060205 	bmi	181124 <__start__-0x1fdfeedc>
 90c:	05827703 	streq	r7, [r2, #1795]	; 0x703
 910:	4a090309 	bmi	24153c <__start__-0x1fd3eac4>
 914:	4b060405 	blmi	181930 <__start__-0x1fdfe6d0>
 918:	05490205 	strbeq	r0, [r9, #-517]	; 0xfffffdfb
 91c:	77030600 	strvc	r0, [r3, -r0, lsl #12]
 920:	060d05ba 			; <UNDEFINED> instruction: 0x060d05ba
 924:	0800dd03 	stmdaeq	r0, {r0, r1, r8, sl, fp, ip, lr, pc}
 928:	a303063c 	movwge	r0, #13884	; 0x363c
 92c:	1b054a7f 	blne	153330 <__start__-0x1fe2ccd0>
 930:	f2250306 	vcgt.s32	d0, d5, d6
 934:	64030905 	strvs	r0, [r3], #-2309	; 0xfffff6fb
 938:	0602054a 	streq	r0, [r2], -sl, asr #10
 93c:	8277034a 	rsbshi	r0, r7, #671088641	; 0x28000001
 940:	09030905 	stmdbeq	r3, {r0, r2, r8, fp}
 944:	8202054a 	andhi	r0, r2, #310378496	; 0x12800000
 948:	03060e05 	movweq	r0, #28165	; 0x6e05
 94c:	05ba0197 	ldreq	r0, [sl, #407]!	; 0x197
 950:	03064906 	movweq	r4, #26886	; 0x6906
 954:	05ba7ee1 	ldreq	r7, [sl, #3809]!	; 0xee1
 958:	a0030610 	andge	r0, r3, r0, lsl r6
 95c:	0e058201 	cdpeq	2, 0, cr8, cr5, cr1, {0}
 960:	18054a06 	stmdane	r5, {r1, r2, r9, fp, lr}
 964:	06054906 	streq	r4, [r5], -r6, lsl #18
 968:	e1034a06 	tst	r3, r6, lsl #20
 96c:	1b05ba7e 	blne	16f36c <__start__-0x1fe10c94>
 970:	4a250306 	bmi	941590 <__start__-0x1f63ea70>
 974:	64030905 	strvs	r0, [r3], #-2309	; 0xfffff6fb
 978:	0602054a 	streq	r0, [r2], -sl, asr #10
 97c:	82770382 	rsbshi	r0, r7, #134217730	; 0x8000002
 980:	09030905 	stmdbeq	r3, {r0, r2, r8, fp}
 984:	8202054a 	andhi	r0, r2, #310378496	; 0x12800000
 988:	05ba7703 	ldreq	r7, [sl, #1795]!	; 0x703
 98c:	8903060e 	stmdbhi	r3, {r1, r2, r3, r9, sl}
 990:	06054a01 	streq	r4, [r5], -r1, lsl #20
 994:	f8030649 			; <UNDEFINED> instruction: 0xf8030649
 998:	1005ba7e 	andne	fp, r5, lr, ror sl
 99c:	01890306 	orreq	r0, r9, r6, lsl #6
 9a0:	060e054a 	streq	r0, [lr], -sl, asr #10
 9a4:	0618054a 	ldreq	r0, [r8], -sl, asr #10
 9a8:	06060549 	streq	r0, [r6], -r9, asr #10
 9ac:	0300054a 	movweq	r0, #1354	; 0x54a
 9b0:	05827ef8 	streq	r7, [r2, #3832]	; 0xef8
 9b4:	c6030606 	strgt	r0, [r3], -r6, lsl #12
 9b8:	0905f200 	stmdbeq	r5, {r9, ip, sp, lr, pc}
 9bc:	4a00ef03 	bmi	3c5d0 <__start__-0x1ff43a30>
 9c0:	06840105 	streq	r0, [r4], r5, lsl #2
 9c4:	ba7ec903 	blt	1fb2dd8 <__start__-0x1dfcd228>
 9c8:	01000402 	tsteq	r0, r2, lsl #8
 9cc:	0000ed01 	andeq	lr, r0, r1, lsl #26
 9d0:	8d000400 	cfstrshi	mvf0, [r0, #-0]
 9d4:	01000000 	mrseq	r0, (UNDEF: 0)
 9d8:	0efb0101 	cdpeq	1, 15, cr0, cr11, cr1, {0}
 9dc:	0101000d 	tsteq	r1, sp
 9e0:	00000101 	andeq	r0, r0, r1, lsl #2
 9e4:	00000100 	andeq	r0, r0, r0, lsl #2
 9e8:	6c2f2e01 	stcvs	14, cr2, [pc], #-4	; 9ec <__start__-0x1ff7f614>
 9ec:	6c2f6269 	sfmvs	f6, 4, [pc], #-420	; 850 <__start__-0x1ff7f7b0>
 9f0:	6f636269 	svcvs	0x00636269
 9f4:	6c006572 	cfstr32vs	mvfx6, [r0], {114}	; 0x72
 9f8:	2e006269 	cdpcs	2, 0, cr6, cr0, cr9, {3}
 9fc:	726f632f 	rsbvc	r6, pc, #-1140850688	; 0xbc000000
 a00:	752f0065 	strvc	r0, [pc, #-101]!	; 9a3 <__start__-0x1ff7f65d>
 a04:	6c2f7273 	sfmvs	f7, 4, [pc], #-460	; 840 <__start__-0x1ff7f7c0>
 a08:	6c2f6269 	sfmvs	f6, 4, [pc], #-420	; 86c <__start__-0x1ff7f794>
 a0c:	2d6d766c 	stclcs	6, cr7, [sp, #-432]!	; 0xfffffe50
 a10:	6c2f3031 	stcvs	0, cr3, [pc], #-196	; 954 <__start__-0x1ff7f6ac>
 a14:	632f6269 			; <UNDEFINED> instruction: 0x632f6269
 a18:	676e616c 	strbvs	r6, [lr, -ip, ror #2]!
 a1c:	2e30312f 	rsfcssp	f3, f0, #10.0
 a20:	2f302e30 	svccs	0x00302e30
 a24:	6c636e69 	stclvs	14, cr6, [r3], #-420	; 0xfffffe5c
 a28:	00656475 	rsbeq	r6, r5, r5, ror r4
 a2c:	00002e2e 	andeq	r2, r0, lr, lsr #28
 a30:	2e746d66 	cdpcs	13, 7, cr6, cr4, cr6, {3}
 a34:	00010068 	andeq	r0, r1, r8, rrx
 a38:	69727000 	ldmdbvs	r2!, {ip, sp, lr}^
 a3c:	632e746e 			; <UNDEFINED> instruction: 0x632e746e
 a40:	00000200 	andeq	r0, r0, r0, lsl #4
 a44:	682e6266 	stmdavs	lr!, {r1, r2, r5, r6, r9, sp, lr}
 a48:	00000300 	andeq	r0, r0, r0, lsl #6
 a4c:	61647473 	smcvs	18243	; 0x4743
 a50:	682e6772 	stmdavs	lr!, {r1, r4, r5, r6, r8, r9, sl, sp, lr}
 a54:	00000400 	andeq	r0, r0, r0, lsl #8
 a58:	65707974 	ldrbvs	r7, [r0, #-2420]!	; 0xfffff68c
 a5c:	00682e73 	rsbeq	r2, r8, r3, ror lr
 a60:	00000005 	andeq	r0, r0, r5
 a64:	05000204 	streq	r0, [r0, #-516]	; 0xfffffdfc
 a68:	f80cbc02 			; <UNDEFINED> instruction: 0xf80cbc02
 a6c:	010a031f 	tsteq	sl, pc, lsl r3
 a70:	f50a0c05 			; <UNDEFINED> instruction: 0xf50a0c05
 a74:	82720306 	rsbshi	r0, r2, #402653184	; 0x18000000
 a78:	05ba0e03 	ldreq	r0, [sl, #3587]!	; 0xe03
 a7c:	05b90602 	ldreq	r0, [r9, #1538]!	; 0x602
 a80:	02054b0c 	andeq	r4, r5, #12, 22	; 0x3000
 a84:	840e054d 	strhi	r0, [lr], #-1357	; 0xfffffab3
 a88:	03060005 	movweq	r0, #24581	; 0x6005
 a8c:	0e05826d 	cdpeq	2, 0, cr8, cr5, cr13, {3}
 a90:	054a1303 	strbeq	r1, [sl, #-771]	; 0xfffffcfd
 a94:	11054a17 	tstne	r5, r7, lsl sl
 a98:	4a03054a 	bmi	c1fc8 <__start__-0x1febe038>
 a9c:	f0062205 			; <UNDEFINED> instruction: 0xf0062205
 aa0:	4a061405 	bmi	185abc <__start__-0x1fdfa544>
 aa4:	054a2205 	strbeq	r2, [sl, #-517]	; 0xfffffdfb
 aa8:	04058202 	streq	r8, [r5], #-514	; 0xfffffdfe
 aac:	83495006 	movthi	r5, #36870	; 0x9006
 ab0:	01054b49 	tsteq	r5, r9, asr #22
 ab4:	68030683 	stmdavs	r3, {r0, r1, r7, r9, sl}
 ab8:	000c02f2 	strdeq	r0, [ip], -r2
 abc:	00700101 	rsbseq	r0, r0, r1, lsl #2
 ac0:	00030000 	andeq	r0, r3, r0
 ac4:	0000003d 	andeq	r0, r0, sp, lsr r0
 ac8:	0efb0102 	cdpeq	1, 15, cr0, cr11, cr2, {0}
 acc:	0101000d 	tsteq	r1, sp
 ad0:	00000101 	andeq	r0, r0, r1, lsl #2
 ad4:	00000100 	andeq	r0, r0, r0, lsl #2
 ad8:	2f2e2e01 	svccs	0x002e2e01
 adc:	2e2f2e2e 	cdpcs	14, 2, cr2, cr15, cr14, {1}
 ae0:	696c2f2e 	stmdbvs	ip!, {r1, r2, r3, r5, r8, r9, sl, fp, sp}^
 ae4:	63636762 	cmnvs	r3, #25690112	; 0x1880000
 ae8:	6e6f632f 	cdpvs	3, 6, cr6, cr15, cr15, {1}
 aec:	2f676966 	svccs	0x00676966
 af0:	006d7261 	rsbeq	r7, sp, r1, ror #4
 af4:	62696c00 	rsbvs	r6, r9, #0, 24
 af8:	6e756631 	mrcvs	6, 3, r6, cr5, cr1, {1}
 afc:	532e7363 			; <UNDEFINED> instruction: 0x532e7363
 b00:	00000100 	andeq	r0, r0, r0, lsl #2
 b04:	02050000 	andeq	r0, r5, #0
 b08:	1ff80d70 	svcne	0x00f80d70
 b0c:	0108ca03 	tsteq	r8, r3, lsl #20
 b10:	2f2f2f30 	svccs	0x002f2f30
 b14:	02302f2f 	eorseq	r2, r0, #47, 30	; 0xbc
 b18:	312f143e 			; <UNDEFINED> instruction: 0x312f143e
 b1c:	08302f2f 	ldmdaeq	r0!, {r0, r1, r2, r3, r5, r8, r9, sl, fp, sp}
 b20:	03322f92 	teqeq	r2, #584	; 0x248
 b24:	2f2f661f 	svccs	0x002f661f
 b28:	2f2f2f2f 	svccs	0x002f2f2f
 b2c:	0002022f 	andeq	r0, r2, pc, lsr #4
 b30:	007c0101 	rsbseq	r0, ip, r1, lsl #2
 b34:	00030000 	andeq	r0, r3, r0
 b38:	0000003d 	andeq	r0, r0, sp, lsr r0
 b3c:	0efb0102 	cdpeq	1, 15, cr0, cr11, cr2, {0}
 b40:	0101000d 	tsteq	r1, sp
 b44:	00000101 	andeq	r0, r0, r1, lsl #2
 b48:	00000100 	andeq	r0, r0, r0, lsl #2
 b4c:	2f2e2e01 	svccs	0x002e2e01
 b50:	2e2f2e2e 	cdpcs	14, 2, cr2, cr15, cr14, {1}
 b54:	696c2f2e 	stmdbvs	ip!, {r1, r2, r3, r5, r8, r9, sl, fp, sp}^
 b58:	63636762 	cmnvs	r3, #25690112	; 0x1880000
 b5c:	6e6f632f 	cdpvs	3, 6, cr6, cr15, cr15, {1}
 b60:	2f676966 	svccs	0x00676966
 b64:	006d7261 	rsbeq	r7, sp, r1, ror #4
 b68:	62696c00 	rsbvs	r6, r9, #0, 24
 b6c:	6e756631 	mrcvs	6, 3, r6, cr5, cr1, {1}
 b70:	532e7363 			; <UNDEFINED> instruction: 0x532e7363
 b74:	00000100 	andeq	r0, r0, r0, lsl #2
 b78:	02050000 	andeq	r0, r5, #0
 b7c:	1ff80e84 	svcne	0x00f80e84
 b80:	010a8b03 	tsteq	sl, r3, lsl #22
 b84:	2f30302f 	svccs	0x0030302f
 b88:	2f302f2f 	svccs	0x00302f2f
 b8c:	302f2f2f 	eorcc	r2, pc, pc, lsr #30
 b90:	30143e02 	andscc	r3, r4, r2, lsl #28
 b94:	2f30302f 	svccs	0x0030302f
 b98:	2f2f3031 	svccs	0x002f3031
 b9c:	2f920830 	svccs	0x00920830
 ba0:	03322f30 	teqeq	r2, #48, 30	; 0xc0
 ba4:	2f2f821f 	svccs	0x002f821f
 ba8:	2f2f2f2f 	svccs	0x002f2f2f
 bac:	0002022f 	andeq	r0, r2, pc, lsr #4
 bb0:	00530101 	subseq	r0, r3, r1, lsl #2
 bb4:	00030000 	andeq	r0, r3, r0
 bb8:	0000003d 	andeq	r0, r0, sp, lsr r0
 bbc:	0efb0102 	cdpeq	1, 15, cr0, cr11, cr2, {0}
 bc0:	0101000d 	tsteq	r1, sp
 bc4:	00000101 	andeq	r0, r0, r1, lsl #2
 bc8:	00000100 	andeq	r0, r0, r0, lsl #2
 bcc:	2f2e2e01 	svccs	0x002e2e01
 bd0:	2e2f2e2e 	cdpcs	14, 2, cr2, cr15, cr14, {1}
 bd4:	696c2f2e 	stmdbvs	ip!, {r1, r2, r3, r5, r8, r9, sl, fp, sp}^
 bd8:	63636762 	cmnvs	r3, #25690112	; 0x1880000
 bdc:	6e6f632f 	cdpvs	3, 6, cr6, cr15, cr15, {1}
 be0:	2f676966 	svccs	0x00676966
 be4:	006d7261 	rsbeq	r7, sp, r1, ror #4
 be8:	62696c00 	rsbvs	r6, r9, #0, 24
 bec:	6e756631 	mrcvs	6, 3, r6, cr5, cr1, {1}
 bf0:	532e7363 			; <UNDEFINED> instruction: 0x532e7363
 bf4:	00000100 	andeq	r0, r0, r0, lsl #2
 bf8:	02050000 	andeq	r0, r5, #0
 bfc:	1ff80fcc 	svcne	0x00f80fcc
 c00:	010bb403 	tsteq	fp, r3, lsl #8
 c04:	01000202 	tsteq	r0, r2, lsl #4
 c08:	Address 0x0000000000000c08 is out of bounds.


Disassembly of section .debug_frame:

00000000 <.debug_frame>:
   0:	00000010 	andeq	r0, r0, r0, lsl r0
   4:	ffffffff 			; <UNDEFINED> instruction: 0xffffffff
   8:	00040004 	andeq	r0, r4, r4
   c:	0c0e7c01 	stceq	12, cr7, [lr], {1}
  10:	0000000d 	andeq	r0, r0, sp
  14:	00000020 	andeq	r0, r0, r0, lsr #32
  18:	00000000 	andeq	r0, r0, r0
  1c:	1ff80050 	svcne	0x00f80050
  20:	00000148 	andeq	r0, r0, r8, asr #2
  24:	8e180e44 	cdphi	14, 1, cr0, cr8, cr4, {2}
  28:	8a028b01 	bhi	a2c34 <__start__-0x1fedd3cc>
  2c:	85048603 	strhi	r8, [r4, #-1539]	; 0xfffff9fd
  30:	44068405 	strmi	r8, [r6], #-1029	; 0xfffffbfb
  34:	00080b0c 	andeq	r0, r8, ip, lsl #22
  38:	00000010 	andeq	r0, r0, r0, lsl r0
  3c:	00000000 	andeq	r0, r0, r0
  40:	1ff80198 	svcne	0x00f80198
  44:	00000044 	andeq	r0, r0, r4, asr #32
  48:	000c0e44 	andeq	r0, ip, r4, asr #28
  4c:	00000010 	andeq	r0, r0, r0, lsl r0
  50:	ffffffff 			; <UNDEFINED> instruction: 0xffffffff
  54:	00040004 	andeq	r0, r4, r4
  58:	0c0e7c01 	stceq	12, cr7, [lr], {1}
  5c:	0000000d 	andeq	r0, r0, sp
  60:	00000028 	andeq	r0, r0, r8, lsr #32
  64:	0000004c 	andeq	r0, r0, ip, asr #32
  68:	1ff801dc 	svcne	0x00f801dc
  6c:	000000d8 	ldrdeq	r0, [r0], -r8
  70:	8e240e44 	cdphi	14, 2, cr0, cr4, cr4, {2}
  74:	8a028b01 	bhi	a2c80 <__start__-0x1fedd380>
  78:	88048903 	stmdahi	r4, {r0, r1, r8, fp, pc}
  7c:	86068705 	strhi	r8, [r6], -r5, lsl #14
  80:	84088507 	strhi	r8, [r8], #-1287	; 0xfffffaf9
  84:	0b0c4409 	bleq	3110b0 <__start__-0x1fc6ef50>
  88:	00000008 	andeq	r0, r0, r8
  8c:	0000001c 	andeq	r0, r0, ip, lsl r0
  90:	0000004c 	andeq	r0, r0, ip, asr #32
  94:	1ff802b4 	svcne	0x00f802b4
  98:	0000004c 	andeq	r0, r0, ip, asr #32
  9c:	8e100e44 	cdphi	14, 1, cr0, cr0, cr4, {2}
  a0:	8a028b01 	bhi	a2cac <__start__-0x1fedd354>
  a4:	44048403 	strmi	r8, [r4], #-1027	; 0xfffffbfd
  a8:	00080b0c 	andeq	r0, r8, ip, lsl #22
  ac:	0000001c 	andeq	r0, r0, ip, lsl r0
  b0:	0000004c 	andeq	r0, r0, ip, asr #32
  b4:	1ff80300 	svcne	0x00f80300
  b8:	00000174 	andeq	r0, r0, r4, ror r1
  bc:	8e100e44 	cdphi	14, 1, cr0, cr0, cr4, {2}
  c0:	85028b01 	strhi	r8, [r2, #-2817]	; 0xfffff4ff
  c4:	44048403 	strmi	r8, [r4], #-1027	; 0xfffffbfd
  c8:	00080b0c 	andeq	r0, r8, ip, lsl #22
  cc:	00000024 	andeq	r0, r0, r4, lsr #32
  d0:	0000004c 	andeq	r0, r0, ip, asr #32
  d4:	1ff80474 	svcne	0x00f80474
  d8:	0000009c 	muleq	r0, ip, r0
  dc:	8e200e44 	cdphi	14, 2, cr0, cr0, cr4, {2}
  e0:	89028b01 	stmdbhi	r2, {r0, r8, r9, fp, pc}
  e4:	87048803 	strhi	r8, [r4, -r3, lsl #16]
  e8:	85068605 	strhi	r8, [r6, #-1541]	; 0xfffff9fb
  ec:	44088407 	strmi	r8, [r8], #-1031	; 0xfffffbf9
  f0:	00080b0c 	andeq	r0, r8, ip, lsl #22
  f4:	00000010 	andeq	r0, r0, r0, lsl r0
  f8:	ffffffff 			; <UNDEFINED> instruction: 0xffffffff
  fc:	00040004 	andeq	r0, r4, r4
 100:	0c0e7c01 	stceq	12, cr7, [lr], {1}
 104:	0000000d 	andeq	r0, r0, sp
 108:	00000018 	andeq	r0, r0, r8, lsl r0
 10c:	000000f4 	strdeq	r0, [r0], -r4
 110:	1fffffa0 	svcne	0x00ffffa0
 114:	00000018 	andeq	r0, r0, r8, lsl r0
 118:	8e080e44 	cdphi	14, 0, cr0, cr8, cr4, {2}
 11c:	44028b01 	strmi	r8, [r2], #-2817	; 0xfffff4ff
 120:	00000b0d 	andeq	r0, r0, sp, lsl #22
 124:	00000018 	andeq	r0, r0, r8, lsl r0
 128:	000000f4 	strdeq	r0, [r0], -r4
 12c:	1fffffb8 	svcne	0x00ffffb8
 130:	00000018 	andeq	r0, r0, r8, lsl r0
 134:	8e080e44 	cdphi	14, 0, cr0, cr8, cr4, {2}
 138:	44028b01 	strmi	r8, [r2], #-2817	; 0xfffff4ff
 13c:	00000b0d 	andeq	r0, r0, sp, lsl #22
 140:	00000018 	andeq	r0, r0, r8, lsl r0
 144:	000000f4 	strdeq	r0, [r0], -r4
 148:	1fffffd0 	svcne	0x00ffffd0
 14c:	00000018 	andeq	r0, r0, r8, lsl r0
 150:	8e080e44 	cdphi	14, 0, cr0, cr8, cr4, {2}
 154:	44028b01 	strmi	r8, [r2], #-2817	; 0xfffff4ff
 158:	00000b0d 	andeq	r0, r0, sp, lsl #22
 15c:	00000018 	andeq	r0, r0, r8, lsl r0
 160:	000000f4 	strdeq	r0, [r0], -r4
 164:	1ff80510 	svcne	0x00f80510
 168:	0000002c 	andeq	r0, r0, ip, lsr #32
 16c:	8e080e44 	cdphi	14, 0, cr0, cr8, cr4, {2}
 170:	44028b01 	strmi	r8, [r2], #-2817	; 0xfffff4ff
 174:	00000b0d 	andeq	r0, r0, sp, lsl #22
 178:	00000010 	andeq	r0, r0, r0, lsl r0
 17c:	ffffffff 			; <UNDEFINED> instruction: 0xffffffff
 180:	00040004 	andeq	r0, r4, r4
 184:	0c0e7c01 	stceq	12, cr7, [lr], {1}
 188:	0000000d 	andeq	r0, r0, sp
 18c:	0000000c 	andeq	r0, r0, ip
 190:	00000178 	andeq	r0, r0, r8, ror r1
 194:	1ff8053c 	svcne	0x00f8053c
 198:	0000000c 	andeq	r0, r0, ip
 19c:	0000000c 	andeq	r0, r0, ip
 1a0:	00000178 	andeq	r0, r0, r8, ror r1
 1a4:	1ff80548 	svcne	0x00f80548
 1a8:	00000018 	andeq	r0, r0, r8, lsl r0
 1ac:	0000001c 	andeq	r0, r0, ip, lsl r0
 1b0:	00000178 	andeq	r0, r0, r8, ror r1
 1b4:	1ff80560 	svcne	0x00f80560
 1b8:	000000a8 	andeq	r0, r0, r8, lsr #1
 1bc:	8e100e44 	cdphi	14, 1, cr0, cr0, cr4, {2}
 1c0:	8a028b01 	bhi	a2dcc <__start__-0x1fedd234>
 1c4:	44048403 	strmi	r8, [r4], #-1027	; 0xfffffbfd
 1c8:	00080b0c 	andeq	r0, r8, ip, lsl #22
 1cc:	00000024 	andeq	r0, r0, r4, lsr #32
 1d0:	00000178 	andeq	r0, r0, r8, ror r1
 1d4:	1ff80608 	svcne	0x00f80608
 1d8:	00000108 	andeq	r0, r0, r8, lsl #2
 1dc:	8e200e44 	cdphi	14, 2, cr0, cr0, cr4, {2}
 1e0:	8a028b01 	bhi	a2dec <__start__-0x1fedd214>
 1e4:	87048803 	strhi	r8, [r4, -r3, lsl #16]
 1e8:	85068605 	strhi	r8, [r6, #-1541]	; 0xfffff9fb
 1ec:	44088407 	strmi	r8, [r8], #-1031	; 0xfffffbf9
 1f0:	00080b0c 	andeq	r0, r8, ip, lsl #22
 1f4:	00000028 	andeq	r0, r0, r8, lsr #32
 1f8:	00000178 	andeq	r0, r0, r8, ror r1
 1fc:	1ff80710 	svcne	0x00f80710
 200:	000005ac 	andeq	r0, r0, ip, lsr #11
 204:	8e240e44 	cdphi	14, 2, cr0, cr4, cr4, {2}
 208:	8a028b01 	bhi	a2e14 <__start__-0x1fedd1ec>
 20c:	88048903 	stmdahi	r4, {r0, r1, r8, fp, pc}
 210:	86068705 	strhi	r8, [r6], -r5, lsl #14
 214:	84088507 	strhi	r8, [r8], #-1287	; 0xfffffaf9
 218:	0b0c4409 	bleq	311244 <__start__-0x1fc6edbc>
 21c:	00000008 	andeq	r0, r0, r8
 220:	00000010 	andeq	r0, r0, r0, lsl r0
 224:	ffffffff 			; <UNDEFINED> instruction: 0xffffffff
 228:	00040004 	andeq	r0, r4, r4
 22c:	0c0e7c01 	stceq	12, cr7, [lr], {1}
 230:	0000000d 	andeq	r0, r0, sp
 234:	00000024 	andeq	r0, r0, r4, lsr #32
 238:	00000220 	andeq	r0, r0, r0, lsr #4
 23c:	1ff80cbc 	svcne	0x00f80cbc
 240:	000000b4 	strheq	r0, [r0], -r4
 244:	440c0e44 	strmi	r0, [ip], #-3652	; 0xfffff1bc
 248:	048e240e 	streq	r2, [lr], #1038	; 0x40e
 24c:	0687058b 	streq	r0, [r7], fp, lsl #11
 250:	08850786 	stmeq	r5, {r1, r2, r7, r8, r9, sl}
 254:	0c440984 	mcrreq	9, 8, r0, r4, cr4	; <UNPREDICTABLE>
 258:	0000140b 	andeq	r1, r0, fp, lsl #8
 25c:	0000000c 	andeq	r0, r0, ip
 260:	ffffffff 			; <UNDEFINED> instruction: 0xffffffff
 264:	7c010001 	stcvc	0, cr0, [r1], {1}
 268:	000d0c0e 	andeq	r0, sp, lr, lsl #24
 26c:	0000000c 	andeq	r0, r0, ip
 270:	0000025c 	andeq	r0, r0, ip, asr r2
 274:	1ff80d70 	svcne	0x00f80d70
 278:	000000f4 	strdeq	r0, [r0], -r4
 27c:	0000000c 	andeq	r0, r0, ip
 280:	ffffffff 			; <UNDEFINED> instruction: 0xffffffff
 284:	7c010001 	stcvc	0, cr0, [r1], {1}
 288:	000d0c0e 	andeq	r0, sp, lr, lsl #24
 28c:	0000000c 	andeq	r0, r0, ip
 290:	0000027c 	andeq	r0, r0, ip, ror r2
 294:	1ff80e84 	svcne	0x00f80e84
 298:	00000128 	andeq	r0, r0, r8, lsr #2

Disassembly of section .debug_str:

00000000 <.debug_str>:
   0:	00323375 	eorseq	r3, r2, r5, ror r3
   4:	66007061 	strvs	r7, [r0], -r1, rrx
   8:	00746e6f 	rsbseq	r6, r4, pc, ror #28
   c:	20554e47 	subscs	r4, r5, r7, asr #28
  10:	32205341 	eorcc	r5, r0, #67108865	; 0x4000001
  14:	0034332e 	eorseq	r3, r4, lr, lsr #6
  18:	6e696564 	cdpvs	5, 6, cr6, cr9, cr4, {3}
  1c:	645f7469 	ldrbvs	r7, [pc], #-1129	; 24 <__start__-0x1ff7ffdc>
  20:	6c707369 	ldclvs	3, cr7, [r0], #-420	; 0xfffffe5c
  24:	00737961 	rsbseq	r7, r3, r1, ror #18
  28:	66667562 	strbtvs	r7, [r6], -r2, ror #10
  2c:	66756200 	ldrbtvs	r6, [r5], -r0, lsl #4
  30:	5f726566 	svcpl	0x00726566
  34:	66007a73 			; <UNDEFINED> instruction: 0x66007a73
  38:	7600746d 	strvc	r7, [r0], -sp, ror #8
  3c:	696c5f61 	stmdbvs	ip!, {r0, r5, r6, r8, r9, sl, fp, ip, lr}^
  40:	75007473 	strvc	r7, [r0, #-1139]	; 0xfffffb8d
  44:	6769736e 	strbvs	r7, [r9, -lr, ror #6]!
  48:	2064656e 	rsbcs	r6, r4, lr, ror #10
  4c:	72616863 	rsbvc	r6, r1, #6488064	; 0x630000
  50:	78697000 	stmdavc	r9!, {ip, sp, lr}^
  54:	79006c65 	stmdbvc	r0, {r0, r2, r5, r6, sl, fp, sp, lr}
  58:	6c617600 	stclvs	6, cr7, [r1], #-0
  5c:	6a626f00 	bvs	189bc64 <__start__-0x1e6e439c>
  60:	73746365 	cmnvc	r4, #-1811939327	; 0x94000001
  64:	70006900 	andvc	r6, r0, r0, lsl #18
  68:	00637475 	rsbeq	r7, r3, r5, ror r4
  6c:	00776f70 	rsbseq	r6, r7, r0, ror pc
  70:	5f637273 	svcpl	0x00637273
  74:	69727473 	ldmdbvs	r2!, {r0, r1, r4, r5, r6, sl, ip, sp, lr}^
  78:	695f676e 	ldmdbvs	pc, {r1, r2, r3, r5, r6, r8, r9, sl, sp, lr}^	; <UNPREDICTABLE>
  7c:	7865646e 	stmdavc	r5!, {r1, r2, r3, r5, r6, sl, sp, lr}^
  80:	415f5f00 	cmpmi	pc, r0, lsl #30
  84:	59415252 	stmdbpl	r1, {r1, r4, r6, r9, ip, lr}^
  88:	5a49535f 	bpl	1254e0c <__start__-0x1ed2b1f4>
  8c:	59545f45 	ldmdbpl	r4, {r0, r2, r6, r8, r9, sl, fp, ip, lr}^
  90:	5f5f4550 	svcpl	0x005f4550
  94:	6e616300 	cdpvs	3, 6, cr6, cr1, cr0, {0}
  98:	6172645f 	cmnvs	r2, pc, asr r4
  9c:	65730077 	ldrbvs	r0, [r3, #-119]!	; 0xffffff89
  a0:	7463656c 	strbtvc	r6, [r3], #-1388	; 0xfffffa94
  a4:	006e6f69 	rsbeq	r6, lr, r9, ror #30
  a8:	6f690073 	svcvs	0x00690073
  ac:	726f705f 	rsbvc	r7, pc, #95	; 0x5f
  b0:	6e690074 	mcrvs	0, 3, r0, cr9, cr4, {3}
  b4:	61640074 	smcvs	16388	; 0x4004
  b8:	615f6174 	cmpvs	pc, r4, ror r1	; <UNPREDICTABLE>
  bc:	74726f62 	ldrbtvc	r6, [r2], #-3938	; 0xfffff09e
  c0:	6e61685f 	mcrvs	8, 3, r6, cr1, cr15, {2}
  c4:	72656c64 	rsbvc	r6, r5, #100, 24	; 0x6400
  c8:	6f746900 	svcvs	0x00746900
  cc:	6f630068 	svcvs	0x00630068
  d0:	662f6572 			; <UNDEFINED> instruction: 0x662f6572
  d4:	00632e62 	rsbeq	r2, r3, r2, ror #28
  d8:	00677261 	rsbeq	r7, r7, r1, ror #4
  dc:	65726f63 	ldrbvs	r6, [r2, #-3939]!	; 0xfffff09d
  e0:	746e692f 	strbtvc	r6, [lr], #-2351	; 0xfffff6d1
  e4:	746e692f 	strbtvc	r6, [lr], #-2351	; 0xfffff6d1
  e8:	6900532e 	stmdbvs	r0, {r1, r2, r3, r5, r8, r9, ip, lr}
  ec:	706f5473 	rsbvc	r5, pc, r3, ror r4	; <UNPREDICTABLE>
  f0:	65726353 	ldrbvs	r6, [r2, #-851]!	; 0xfffffcad
  f4:	69006e65 	stmdbvs	r0, {r0, r2, r5, r6, r9, sl, fp, sp, lr}
  f8:	66003233 			; <UNDEFINED> instruction: 0x66003233
  fc:	6d617263 	sfmvs	f7, 2, [r1, #-396]!	; 0xfffffe74
 100:	63727300 	cmnvs	r2, #0, 6
 104:	66756200 	ldrbtvs	r6, [r5], -r0, lsl #4
 108:	7a735f66 	bvc	1cd7ea8 <__start__-0x1e2a8158>
 10c:	736f7000 	cmnvc	pc, #0
 110:	6e750058 	mrcvs	0, 3, r0, cr5, cr8, {2}
 114:	6e676973 			; <UNDEFINED> instruction: 0x6e676973
 118:	69206465 	stmdbvs	r0!, {r0, r2, r5, r6, sl, sp, lr}
 11c:	6300746e 	movwvs	r7, #1134	; 0x46e
 120:	00726168 	rsbseq	r6, r2, r8, ror #2
 124:	62616c73 	rsbvs	r6, r1, #29440	; 0x7300
 128:	6572665f 	ldrbvs	r6, [r2, #-1631]!	; 0xfffff9a1
 12c:	65720065 	ldrbvs	r0, [r2, #-101]!	; 0xffffff9b
 130:	5f5f0073 	svcpl	0x005f0073
 134:	6c5f6176 	ldfvse	f6, [pc], {118}	; 0x76
 138:	00747369 	rsbseq	r7, r4, r9, ror #6
 13c:	657a6973 	ldrbvs	r6, [sl, #-2419]!	; 0xfffff68d
 140:	726f6600 	rsbvc	r6, pc, #0, 12
 144:	0074616d 	rsbseq	r6, r4, sp, ror #2
 148:	63696877 	cmnvs	r9, #7798784	; 0x770000
 14c:	6c730068 	ldclvs	0, cr0, [r3], #-416	; 0xfffffe60
 150:	615f6261 	cmpvs	pc, r1, ror #4
 154:	636f6c6c 	cmnvs	pc, #108, 24	; 0x6c00
 158:	72747300 	rsbsvc	r7, r4, #0, 6
 15c:	006e656c 	rsbeq	r6, lr, ip, ror #10
 160:	706e7376 	rsbvc	r7, lr, r6, ror r3
 164:	746e6972 	strbtvc	r6, [lr], #-2418	; 0xfffff68e
 168:	6f630066 	svcvs	0x00630066
 16c:	00726f6c 	rsbseq	r6, r2, ip, ror #30
 170:	646e6966 	strbtvs	r6, [lr], #-2406	; 0xfffff69a
 174:	6572665f 	ldrbvs	r6, [r2, #-1631]!	; 0xfffff9a1
 178:	622f0065 	eorvs	r0, pc, #101	; 0x65
 17c:	646c6975 	strbtvs	r6, [ip], #-2421	; 0xfffff68b
 180:	6363672f 	cmnvs	r3, #12320768	; 0xbc0000
 184:	6d72612d 	ldfvse	f6, [r2, #-180]!	; 0xffffff4c
 188:	6e6f6e2d 	cdpvs	14, 6, cr6, cr15, cr13, {1}
 18c:	61652d65 	cmnvs	r5, r5, ror #26
 190:	472d6962 	strmi	r6, [sp, -r2, ror #18]!
 194:	546b396c 	strbtpl	r3, [fp], #-2412	; 0xfffff694
 198:	63672f39 	cmnvs	r7, #57, 30	; 0xe4
 19c:	72612d63 	rsbvc	r2, r1, #6336	; 0x18c0
 1a0:	6f6e2d6d 	svcvs	0x006e2d6d
 1a4:	652d656e 	strvs	r6, [sp, #-1390]!	; 0xfffffa92
 1a8:	2d696261 	sfmcs	f6, 2, [r9, #-388]!	; 0xfffffe7c
 1ac:	30322d39 	eorscc	r2, r2, r9, lsr sp
 1b0:	712d3931 			; <UNDEFINED> instruction: 0x712d3931
 1b4:	75622f34 	strbvc	r2, [r2, #-3892]!	; 0xfffff0cc
 1b8:	2f646c69 	svccs	0x00646c69
 1bc:	2d6d7261 	sfmcs	f7, 2, [sp, #-388]!	; 0xfffffe7c
 1c0:	656e6f6e 	strbvs	r6, [lr, #-3950]!	; 0xfffff092
 1c4:	6261652d 	rsbvs	r6, r1, #188743680	; 0xb400000
 1c8:	696c2f69 	stmdbvs	ip!, {r0, r3, r5, r6, r8, r9, sl, fp, sp}^
 1cc:	63636762 	cmnvs	r3, #25690112	; 0x1880000
 1d0:	00387500 	eorseq	r7, r8, r0, lsl #10
 1d4:	5f706f74 	svcpl	0x00706f74
 1d8:	70736964 	rsbsvc	r6, r3, r4, ror #18
 1dc:	5f79616c 	svcpl	0x0079616c
 1e0:	66006266 	strvs	r6, [r0], -r6, ror #4
 1e4:	74737269 	ldrbtvc	r7, [r3], #-617	; 0xfffffd97
 1e8:	6572665f 	ldrbvs	r6, [r2, #-1631]!	; 0xfffff9a1
 1ec:	61620065 	cmnvs	r2, r5, rrx
 1f0:	73006573 	movwvc	r6, #1395	; 0x573
 1f4:	6572007a 	ldrbvs	r0, [r2, #-122]!	; 0xffffff86
 1f8:	616c0074 	smcvs	49156	; 0xc004
 1fc:	635f7473 	cmpvs	pc, #1929379840	; 0x73000000
 200:	00726168 	rsbseq	r6, r2, r8, ror #2
 204:	32337576 	eorscc	r7, r3, #494927872	; 0x1d800000
 208:	6f6f6200 	svcvs	0x006f6200
 20c:	6469006c 	strbtvs	r0, [r9], #-108	; 0xffffff94
 210:	006e0078 	rsbeq	r0, lr, r8, ror r0
 214:	00727473 	rsbseq	r7, r2, r3, ror r4
 218:	00727470 	rsbseq	r7, r2, r0, ror r4
 21c:	2f62696c 	svccs	0x0062696c
 220:	6e697270 	mcrvs	2, 3, r7, cr9, cr0, {3}
 224:	00632e74 	rsbeq	r2, r3, r4, ror lr
 228:	2e2f2e2e 	cdpcs	14, 2, cr2, cr15, cr14, {1}
 22c:	2e2e2f2e 	cdpcs	15, 2, cr2, cr14, cr14, {1}
 230:	62696c2f 	rsbvs	r6, r9, #12032	; 0x2f00
 234:	2f636367 	svccs	0x00636367
 238:	666e6f63 	strbtvs	r6, [lr], -r3, ror #30
 23c:	612f6769 			; <UNDEFINED> instruction: 0x612f6769
 240:	6c2f6d72 	stcvs	13, cr6, [pc], #-456	; 80 <__start__-0x1ff7ff80>
 244:	66316269 	ldrtvs	r6, [r1], -r9, ror #4
 248:	73636e75 	cmnvc	r3, #1872	; 0x750
 24c:	7000532e 	andvc	r5, r0, lr, lsr #6
 250:	746e6972 	strbtvc	r6, [lr], #-2418	; 0xfffff68e
 254:	616c7300 	cmnvs	ip, r0, lsl #6
 258:	65007362 	strvs	r7, [r0, #-866]	; 0xfffffc9e
 25c:	6e6f7078 	mcrvs	0, 3, r7, cr15, cr8, {3}
 260:	00746e65 	rsbseq	r6, r4, r5, ror #28
 264:	685f6475 	ldmdavs	pc, {r0, r2, r4, r5, r6, sl, sp, lr}^	; <UNPREDICTABLE>
 268:	6c646e61 	stclvs	14, cr6, [r4], #-388	; 0xfffffe7c
 26c:	63007265 	movwvs	r7, #613	; 0x265
 270:	6d756e00 	ldclvs	14, cr6, [r5, #-0]
 274:	70707500 	rsbsvc	r7, r0, r0, lsl #10
 278:	63007265 	movwvs	r7, #613	; 0x265
 27c:	676e616c 	strbvs	r6, [lr, -ip, ror #2]!
 280:	72657620 	rsbvc	r7, r5, #32, 12	; 0x2000000
 284:	6e6f6973 			; <UNDEFINED> instruction: 0x6e6f6973
 288:	2e303120 	rsfcssp	f3, f0, f0
 28c:	2d302e30 	ldccs	14, cr2, [r0, #-192]!	; 0xffffff40
 290:	75627534 	strbvc	r7, [r2, #-1332]!	; 0xfffffacc
 294:	3175746e 	cmncc	r5, lr, ror #8
 298:	6d6d0020 	stclvs	0, cr0, [sp, #-128]!	; 0xffffff80
 29c:	775f6f69 	ldrbvc	r6, [pc, -r9, ror #30]
 2a0:	65746972 	ldrbvs	r6, [r4, #-2418]!	; 0xfffff68e
 2a4:	63003233 	movwvs	r3, #563	; 0x233
 2a8:	2f65726f 	svccs	0x0065726f
 2ac:	732f6d6d 			; <UNDEFINED> instruction: 0x732f6d6d
 2b0:	2e62616c 	powcssz	f6, f2, #4.0
 2b4:	69660063 	stmdbvs	r6!, {r0, r1, r5, r6}^
 2b8:	615f646e 	cmpvs	pc, lr, ror #8
 2bc:	636f6c6c 	cmnvs	pc, #108, 24	; 0x6c00
 2c0:	64657461 	strbtvs	r7, [r5], #-1121	; 0xfffffb9f
 2c4:	70007800 	andvc	r7, r0, r0, lsl #16
 2c8:	0059736f 	subseq	r7, r9, pc, ror #6
 2cc:	6266006a 	rsbvs	r0, r6, #106	; 0x6a
 2d0:	6a626f00 	bvs	189bed8 <__start__-0x1e6e4128>
 2d4:	73746365 	cmnvc	r4, #-1811939327	; 0x94000001
 2d8:	7265705f 	rsbvc	r7, r5, #95	; 0x5f
 2dc:	616c735f 	cmnvs	ip, pc, asr r3
 2e0:	72700062 	rsbsvc	r0, r0, #98	; 0x62
 2e4:	74656665 	strbtvc	r6, [r5], #-1637	; 0xfffff99b
 2e8:	615f6863 	cmpvs	pc, r3, ror #16
 2ec:	74726f62 	ldrbtvc	r6, [r2], #-3938	; 0xfffff09e
 2f0:	6e61685f 	mcrvs	8, 3, r6, cr1, cr15, {2}
 2f4:	72656c64 	rsbvc	r6, r5, #100, 24	; 0x6400
 2f8:	6f746900 	svcvs	0x00746900
 2fc:	425f0063 	subsmi	r0, pc, #99	; 0x63
 300:	006c6f6f 	rsbeq	r6, ip, pc, ror #30
 304:	6174735f 	cmnvs	r4, pc, asr r3
 308:	64007472 	strvs	r7, [r0], #-1138	; 0xfffffb8e
 30c:	74696769 	strbtvc	r6, [r9], #-1897	; 0xfffff897
 310:	756f6300 	strbvc	r6, [pc, #-768]!	; 18 <__start__-0x1ff7ffe8>
 314:	7265746e 	rsbvc	r7, r5, #1845493760	; 0x6e000000
 318:	6e656c00 	cdpvs	12, 6, cr6, cr5, cr0, {0}
 31c:	6d726100 	ldfvse	f6, [r2, #-0]
 320:	6d2d3131 	stfvss	f3, [sp, #-196]!	; 0xffffff3c
 324:	2e6e6961 	vnmulcs.f16	s13, s28, s3	; <UNPREDICTABLE>
 328:	682f0063 	stmdavs	pc!, {r0, r1, r5, r6}	; <UNPREDICTABLE>
 32c:	2f656d6f 	svccs	0x00656d6f
 330:	2f6d6974 	svccs	0x006d6974
 334:	75636f44 	strbvc	r6, [r3, #-3908]!	; 0xfffff0bc
 338:	746e656d 	strbtvc	r6, [lr], #-1389	; 0xfffffa93
 33c:	64332f73 	ldrtvs	r2, [r3], #-3955	; 0xfffff08d
 340:	61685f73 	smcvs	34291	; 0x85f3
 344:	6e696b63 	vnmulvs.f64	d22, d9, d19
 348:	64332f67 	ldrtvs	r2, [r3], #-3943	; 0xfffff099
 34c:	69665f73 	stmdbvs	r6!, {r0, r1, r4, r5, r6, r8, r9, sl, fp, ip, lr}^
 350:	61776d72 	cmnvs	r7, r2, ror sp
 354:	732f6572 			; <UNDEFINED> instruction: 0x732f6572
 358:	612f6372 			; <UNDEFINED> instruction: 0x612f6372
 35c:	31316d72 	teqcc	r1, r2, ror sp
 360:	68786500 	ldmdavs	r8!, {r8, sl, sp, lr}^
 364:	74737561 	ldrbtvc	r7, [r3], #-1377	; 0xfffffa9f
 368:	73006465 	movwvc	r6, #1125	; 0x465
 36c:	0062616c 	rsbeq	r6, r2, ip, ror #2
 370:	75625f5f 	strbvc	r5, [r2, #-3935]!	; 0xfffff0a1
 374:	69746c69 	ldmdbvs	r4!, {r0, r3, r5, r6, sl, fp, sp, lr}^
 378:	61765f6e 	cmnvs	r6, lr, ror #30
 37c:	73696c5f 	cmnvc	r9, #24320	; 0x5f00
 380:	696c0074 	stmdbvs	ip!, {r2, r4, r5, r6}^
 384:	696c2f62 	stmdbvs	ip!, {r1, r5, r6, r8, r9, sl, fp, sp}^
 388:	726f6362 	rsbvc	r6, pc, #-2013265919	; 0x88000001
 38c:	6d662f65 	stclvs	15, cr2, [r6, #-404]!	; 0xfffffe6c
 390:	00632e74 	rsbeq	r2, r3, r4, ror lr
 394:	72727473 	rsbsvc	r7, r2, #1929379840	; 0x73000000
 398:	69007665 	stmdbvs	r0, {r0, r2, r5, r6, r9, sl, ip, sp, lr}
 39c:	00616f74 	rsbeq	r6, r1, r4, ror pc
 3a0:	00646e65 	rsbeq	r6, r4, r5, ror #28
 3a4:	62616c73 	rsbvs	r6, r1, #29440	; 0x7300
 3a8:	696e695f 	stmdbvs	lr!, {r0, r1, r2, r3, r4, r6, r8, fp, sp, lr}^
 3ac:	65680074 	strbvs	r0, [r8, #-116]!	; 0xffffff8c
 3b0:	65740078 	ldrbvs	r0, [r4, #-120]!	; 0xffffff88
 3b4:	5f00706d 	svcpl	0x0000706d
 3b8:	0070615f 	rsbseq	r6, r0, pc, asr r1

Disassembly of section .debug_loc:

00000000 <.debug_loc>:
   0:	00000000 	andeq	r0, r0, r0
   4:	0000000c 	andeq	r0, r0, ip
   8:	00500001 	subseq	r0, r0, r1
	...
  14:	14000000 	strne	r0, [r0], #-0
  18:	01000000 	mrseq	r0, (UNDEF: 0)
  1c:	00005100 	andeq	r5, r0, r0, lsl #2
	...
  28:	001c0000 	andseq	r0, ip, r0
  2c:	00010000 	andeq	r0, r1, r0
  30:	00000052 	andeq	r0, r0, r2, asr r0
	...
  3c:	00001000 	andeq	r1, r0, r0
  40:	53000100 	movwpl	r0, #256	; 0x100
	...
  4c:	0000000c 	andeq	r0, r0, ip
  50:	00000050 	andeq	r0, r0, r0, asr r0
  54:	00110003 	andseq	r0, r1, r3
  58:	0000949f 	muleq	r0, pc, r4	; <UNPREDICTABLE>
  5c:	00013c00 	andeq	r3, r1, r0, lsl #24
  60:	11000300 	mrsne	r0, LR_irq
  64:	00009f00 	andeq	r9, r0, r0, lsl #30
  68:	00000000 	andeq	r0, r0, r0
  6c:	00500000 	subseq	r0, r0, r0
  70:	00600000 	rsbeq	r0, r0, r0
  74:	00030000 	andeq	r0, r3, r0
  78:	649f0811 	ldrvs	r0, [pc], #2065	; 80 <__start__-0x1ff7ff80>
  7c:	78000000 	stmdavc	r0, {}	; <UNPREDICTABLE>
  80:	03000000 	movweq	r0, #0
  84:	9f001100 	svcls	0x00001100
  88:	00000078 	andeq	r0, r0, r8, ror r0
  8c:	0000008c 	andeq	r0, r0, ip, lsl #1
  90:	01110003 	tsteq	r1, r3
  94:	00008c9f 	muleq	r0, pc, ip	; <UNPREDICTABLE>
  98:	00009400 	andeq	r9, r0, r0, lsl #8
  9c:	11000300 	mrsne	r0, LR_irq
  a0:	00949f02 	addseq	r9, r4, r2, lsl #30
  a4:	009c0000 	addseq	r0, ip, r0
  a8:	00030000 	andeq	r0, r3, r0
  ac:	9c9f0311 	ldcls	3, cr0, [pc], {17}
  b0:	b8000000 	stmdalt	r0, {}	; <UNPREDICTABLE>
  b4:	03000000 	movweq	r0, #0
  b8:	9f041100 	svcls	0x00041100
  bc:	000000b8 	strheq	r0, [r0], -r8
  c0:	000000cc 	andeq	r0, r0, ip, asr #1
  c4:	05110003 	ldreq	r0, [r1, #-3]
  c8:	0000cc9f 	muleq	r0, pc, ip	; <UNPREDICTABLE>
  cc:	0000e000 	andeq	lr, r0, r0
  d0:	11000300 	mrsne	r0, LR_irq
  d4:	00e09f06 	rsceq	r9, r0, r6, lsl #30
  d8:	01000000 	mrseq	r0, (UNDEF: 0)
  dc:	00030000 	andeq	r0, r3, r0
  e0:	009f0711 	addseq	r0, pc, r1, lsl r7	; <UNPREDICTABLE>
  e4:	14000001 	strne	r0, [r0], #-1
  e8:	03000001 	movweq	r0, #1
  ec:	9f021100 	svcls	0x00021100
  f0:	00000114 	andeq	r0, r0, r4, lsl r1
  f4:	00000130 	andeq	r0, r0, r0, lsr r1
  f8:	03110003 	tsteq	r1, #3
  fc:	0001309f 	muleq	r1, pc, r0	; <UNPREDICTABLE>
 100:	00013c00 	andeq	r3, r1, r0, lsl #24
 104:	11000300 	mrsne	r0, LR_irq
 108:	00009f04 	andeq	r9, r0, r4, lsl #30
 10c:	00000000 	andeq	r0, r0, r0
 110:	016c0000 	cmneq	ip, r0
 114:	01880000 	orreq	r0, r8, r0
 118:	00020000 	andeq	r0, r2, r0
 11c:	00009f30 	andeq	r9, r0, r0, lsr pc
 120:	00000000 	andeq	r0, r0, r0
 124:	01780000 	cmneq	r8, r0
 128:	01880000 	orreq	r0, r8, r0
 12c:	00020000 	andeq	r0, r2, r0
 130:	00009f30 	andeq	r9, r0, r0, lsr pc
 134:	00000000 	andeq	r0, r0, r0
 138:	00240000 	eoreq	r0, r4, r0
 13c:	00280000 	eoreq	r0, r8, r0
 140:	00030000 	andeq	r0, r3, r0
 144:	309f0011 	addscc	r0, pc, r1, lsl r0	; <UNPREDICTABLE>
 148:	3c000000 	stccc	0, cr0, [r0], {-0}
 14c:	01000000 	mrseq	r0, (UNDEF: 0)
 150:	00405a00 	subeq	r5, r0, r0, lsl #20
 154:	004c0000 	subeq	r0, ip, r0
 158:	00010000 	andeq	r0, r1, r0
 15c:	00000050 	andeq	r0, r0, r0, asr r0
 160:	00000000 	andeq	r0, r0, r0
 164:	00002400 	andeq	r2, r0, r0, lsl #8
 168:	00002800 	andeq	r2, r0, r0, lsl #16
 16c:	10000700 	andne	r0, r0, r0, lsl #14
 170:	80808080 	addhi	r8, r0, r0, lsl #1
 174:	00289f02 	eoreq	r9, r8, r2, lsl #30
 178:	003c0000 	eorseq	r0, ip, r0
 17c:	00010000 	andeq	r0, r1, r0
 180:	00004054 	andeq	r4, r0, r4, asr r0
 184:	0000a000 	andeq	sl, r0, r0
 188:	54000100 	strpl	r0, [r0], #-256	; 0xffffff00
 18c:	000000b8 	strheq	r0, [r0], -r8
 190:	000000c8 	andeq	r0, r0, r8, asr #1
 194:	00540001 	subseq	r0, r4, r1
 198:	00000000 	andeq	r0, r0, r0
 19c:	28000000 	stmdacs	r0, {}	; <UNPREDICTABLE>
 1a0:	30000000 	andcc	r0, r0, r0
 1a4:	03000000 	movweq	r0, #0
 1a8:	9f001100 	svcls	0x00001100
 1ac:	00000088 	andeq	r0, r0, r8, lsl #1
 1b0:	000000a0 	andeq	r0, r0, r0, lsr #1
 1b4:	00110003 	andseq	r0, r1, r3
 1b8:	0000a09f 	muleq	r0, pc, r0	; <UNPREDICTABLE>
 1bc:	0000b800 	andeq	fp, r0, r0, lsl #16
 1c0:	51000100 	mrspl	r0, (UNDEF: 16)
	...
 1cc:	00000028 	andeq	r0, r0, r8, lsr #32
 1d0:	00000030 	andeq	r0, r0, r0, lsr r0
 1d4:	68560001 	ldmdavs	r6, {r0}^
 1d8:	b8000000 	stmdalt	r0, {}	; <UNPREDICTABLE>
 1dc:	01000000 	mrseq	r0, (UNDEF: 0)
 1e0:	00005600 	andeq	r5, r0, r0, lsl #12
 1e4:	00000000 	andeq	r0, r0, r0
 1e8:	00d80000 	sbcseq	r0, r8, r0
 1ec:	00ec0000 	rsceq	r0, ip, r0
 1f0:	00010000 	andeq	r0, r1, r0
 1f4:	0000ec50 	andeq	lr, r0, r0, asr ip
 1f8:	00010400 	andeq	r0, r1, r0, lsl #8
 1fc:	54000100 	strpl	r0, [r0], #-256	; 0xffffff00
 200:	00000114 	andeq	r0, r0, r4, lsl r1
 204:	00000118 	andeq	r0, r0, r8, lsl r1
 208:	00500001 	subseq	r0, r0, r1
 20c:	00000000 	andeq	r0, r0, r0
 210:	f8000000 			; <UNDEFINED> instruction: 0xf8000000
 214:	fc000000 	stc2	0, cr0, [r0], {-0}
 218:	01000000 	mrseq	r0, (UNDEF: 0)
 21c:	00005000 	andeq	r5, r0, r0
 220:	00000000 	andeq	r0, r0, r0
 224:	01240000 			; <UNDEFINED> instruction: 0x01240000
 228:	02180000 	andseq	r0, r8, #0
 22c:	00010000 	andeq	r0, r1, r0
 230:	00000050 	andeq	r0, r0, r0, asr r0
 234:	00000000 	andeq	r0, r0, r0
 238:	00012c00 	andeq	r2, r1, r0, lsl #24
 23c:	00014000 	andeq	r4, r1, r0
 240:	11000300 	mrsne	r0, LR_irq
 244:	01409f00 	cmpeq	r0, r0, lsl #30
 248:	01580000 	cmpeq	r8, r0
 24c:	00030000 	andeq	r0, r3, r0
 250:	589f0111 	ldmpl	pc, {r0, r4, r8}	; <UNPREDICTABLE>
 254:	68000001 	stmdavs	r0, {r0}
 258:	03000001 	movweq	r0, #1
 25c:	9f021100 	svcls	0x00021100
 260:	00000168 	andeq	r0, r0, r8, ror #2
 264:	00000180 	andeq	r0, r0, r0, lsl #3
 268:	03110003 	tsteq	r1, #3
 26c:	0001809f 	muleq	r1, pc, r0	; <UNPREDICTABLE>
 270:	00019800 	andeq	r9, r1, r0, lsl #16
 274:	11000300 	mrsne	r0, LR_irq
 278:	01989f04 	orrseq	r9, r8, r4, lsl #30
 27c:	01b00000 	movseq	r0, r0
 280:	00030000 	andeq	r0, r3, r0
 284:	b09f0511 	addslt	r0, pc, r1, lsl r5	; <UNPREDICTABLE>
 288:	c8000001 	stmdagt	r0, {r0}
 28c:	03000001 	movweq	r0, #1
 290:	9f061100 	svcls	0x00061100
 294:	000001c8 	andeq	r0, r0, r8, asr #3
 298:	000001e0 	andeq	r0, r0, r0, ror #3
 29c:	07110003 	ldreq	r0, [r1, -r3]
 2a0:	0001e09f 	muleq	r1, pc, r0	; <UNPREDICTABLE>
 2a4:	0001f800 	andeq	pc, r1, r0, lsl #16
 2a8:	11000300 	mrsne	r0, LR_irq
 2ac:	01f89f08 	mvnseq	r9, r8, lsl #30
 2b0:	02140000 	andseq	r0, r4, #0
 2b4:	00030000 	andeq	r0, r3, r0
 2b8:	149f0911 	ldrne	r0, [pc], #2321	; 2c0 <__start__-0x1ff7fd40>
 2bc:	3c000002 	stccc	0, cr0, [r0], {2}
 2c0:	01000002 	tsteq	r0, r2
 2c4:	00005300 	andeq	r5, r0, r0, lsl #6
 2c8:	00000000 	andeq	r0, r0, r0
 2cc:	02340000 	eorseq	r0, r4, #0
 2d0:	02800000 	addeq	r0, r0, #0
 2d4:	00020000 	andeq	r0, r2, r0
 2d8:	02809f30 	addeq	r9, r0, #48, 30	; 0xc0
 2dc:	028c0000 	addeq	r0, ip, #0
 2e0:	00010000 	andeq	r0, r1, r0
 2e4:	00000051 	andeq	r0, r0, r1, asr r0
 2e8:	00000000 	andeq	r0, r0, r0
 2ec:	00023400 	andeq	r3, r2, r0, lsl #8
 2f0:	00023c00 	andeq	r3, r2, r0, lsl #24
 2f4:	53000100 	movwpl	r0, #256	; 0x100
	...
 300:	00000248 	andeq	r0, r0, r8, asr #4
 304:	00000258 	andeq	r0, r0, r8, asr r2
 308:	00110003 	andseq	r0, r1, r3
 30c:	0002589f 	muleq	r2, pc, r8	; <UNPREDICTABLE>
 310:	00027000 	andeq	r7, r2, r0
 314:	52000100 	andpl	r0, r0, #0, 2
 318:	00000280 	andeq	r0, r0, r0, lsl #5
 31c:	00000288 	andeq	r0, r0, r8, lsl #5
 320:	00520001 	subseq	r0, r2, r1
 324:	00000000 	andeq	r0, r0, r0
 328:	48000000 	stmdami	r0, {}	; <UNPREDICTABLE>
 32c:	70000002 	andvc	r0, r0, r2
 330:	01000002 	tsteq	r0, r2
 334:	02805000 	addeq	r5, r0, #0
 338:	02840000 	addeq	r0, r4, #0
 33c:	00010000 	andeq	r0, r1, r0
 340:	00000050 	andeq	r0, r0, r0, asr r0
 344:	00000000 	andeq	r0, r0, r0
 348:	00025800 	andeq	r5, r2, r0, lsl #16
 34c:	00026800 	andeq	r6, r2, r0, lsl #16
 350:	52000100 	andpl	r0, r0, #0, 2
 354:	00000280 	andeq	r0, r0, r0, lsl #5
 358:	00000288 	andeq	r0, r0, r8, lsl #5
 35c:	00520001 	subseq	r0, r2, r1
 360:	00000000 	andeq	r0, r0, r0
 364:	98000000 	stmdals	r0, {}	; <UNPREDICTABLE>
 368:	ac000002 	stcge	0, cr0, [r0], {2}
 36c:	01000002 	tsteq	r0, r2
 370:	02ac5000 	adceq	r5, ip, #0
 374:	032c0000 			; <UNDEFINED> instruction: 0x032c0000
 378:	00010000 	andeq	r0, r1, r0
 37c:	00000055 	andeq	r0, r0, r5, asr r0
 380:	00000000 	andeq	r0, r0, r0
 384:	00029800 	andeq	r9, r2, r0, lsl #16
 388:	0002b000 	andeq	fp, r2, r0
 38c:	51000100 	mrspl	r0, (UNDEF: 16)
 390:	000002b0 			; <UNDEFINED> instruction: 0x000002b0
 394:	0000032c 	andeq	r0, r0, ip, lsr #6
 398:	00540001 	subseq	r0, r4, r1
 39c:	00000000 	andeq	r0, r0, r0
 3a0:	d0000000 	andle	r0, r0, r0
 3a4:	d4000002 	strle	r0, [r0], #-2
 3a8:	01000002 	tsteq	r0, r2
 3ac:	00005100 	andeq	r5, r0, r0, lsl #2
 3b0:	00000000 	andeq	r0, r0, r0
 3b4:	02d40000 	sbcseq	r0, r4, #0
 3b8:	02e80000 	rsceq	r0, r8, #0
 3bc:	00010000 	andeq	r0, r1, r0
 3c0:	00000056 	andeq	r0, r0, r6, asr r0
 3c4:	00000000 	andeq	r0, r0, r0
 3c8:	0002f400 	andeq	pc, r2, r0, lsl #8
 3cc:	00032c00 	andeq	r2, r3, r0, lsl #24
 3d0:	56000100 	strpl	r0, [r0], -r0, lsl #2
	...
 3dc:	00000308 	andeq	r0, r0, r8, lsl #6
 3e0:	00000314 	andeq	r0, r0, r4, lsl r3
 3e4:	00110003 	andseq	r0, r1, r3
 3e8:	0003149f 	muleq	r3, pc, r4	; <UNPREDICTABLE>
 3ec:	00032c00 	andeq	r2, r3, r0, lsl #24
 3f0:	51000100 	mrspl	r0, (UNDEF: 16)
	...
 3fc:	00000308 	andeq	r0, r0, r8, lsl #6
 400:	0000032c 	andeq	r0, r0, ip, lsr #6
 404:	00500001 	subseq	r0, r0, r1
	...
 410:	04000000 	streq	r0, [r0], #-0
 414:	01000000 	mrseq	r0, (UNDEF: 0)
 418:	00005000 	andeq	r5, r0, r0
 41c:	00000000 	andeq	r0, r0, r0
 420:	000c0000 	andeq	r0, ip, r0
 424:	001c0000 	andseq	r0, ip, r0
 428:	00010000 	andeq	r0, r1, r0
 42c:	00000050 	andeq	r0, r0, r0, asr r0
 430:	00000000 	andeq	r0, r0, r0
 434:	00002400 	andeq	r2, r0, r0, lsl #8
 438:	00004400 	andeq	r4, r0, r0, lsl #8
 43c:	70000300 	andvc	r0, r0, r0, lsl #6
 440:	00589f01 	subseq	r9, r8, r1, lsl #30
 444:	00600000 	rsbeq	r0, r0, r0
 448:	00030000 	andeq	r0, r3, r0
 44c:	009f0170 	addseq	r0, pc, r0, ror r1	; <UNPREDICTABLE>
 450:	00000000 	andeq	r0, r0, r0
 454:	2c000000 	stccs	0, cr0, [r0], {-0}
 458:	74000000 	strvc	r0, [r0], #-0
 45c:	03000000 	movweq	r0, #0
 460:	9f001100 	svcls	0x00001100
 464:	00000074 	andeq	r0, r0, r4, ror r0
 468:	0000007c 	andeq	r0, r0, ip, ror r0
 46c:	01110003 	tsteq	r1, r3
 470:	00007c9f 	muleq	r0, pc, ip	; <UNPREDICTABLE>
 474:	00009c00 	andeq	r9, r0, r0, lsl #24
 478:	53000100 	movwpl	r0, #256	; 0x100
	...
 484:	0000002c 	andeq	r0, r0, ip, lsr #32
 488:	00000044 	andeq	r0, r0, r4, asr #32
 48c:	00110003 	andseq	r0, r1, r3
 490:	0000009f 	muleq	r0, pc, r0	; <UNPREDICTABLE>
 494:	00000000 	andeq	r0, r0, r0
 498:	00009000 	andeq	r9, r0, r0
 49c:	00009c00 	andeq	r9, r0, r0, lsl #24
 4a0:	52000100 	andpl	r0, r0, #0, 2
	...
 4ac:	000000a0 	andeq	r0, r0, r0, lsr #1
 4b0:	000000ac 	andeq	r0, r0, ip, lsr #1
 4b4:	01700003 	cmneq	r0, r3
 4b8:	0000009f 	muleq	r0, pc, r0	; <UNPREDICTABLE>
 4bc:	00000000 	andeq	r0, r0, r0
 4c0:	0000a000 	andeq	sl, r0, r0
 4c4:	0000ac00 	andeq	sl, r0, r0, lsl #24
 4c8:	11000300 	mrsne	r0, LR_irq
 4cc:	00b49f00 	adcseq	r9, r4, r0, lsl #30
 4d0:	00c40000 	sbceq	r0, r4, r0
 4d4:	00010000 	andeq	r0, r1, r0
 4d8:	00000052 	andeq	r0, r0, r2, asr r0
 4dc:	00000000 	andeq	r0, r0, r0
 4e0:	0000cc00 	andeq	ip, r0, r0, lsl #24
 4e4:	0000f000 	andeq	pc, r0, r0
 4e8:	50000100 	andpl	r0, r0, r0, lsl #2
 4ec:	000000f0 	strdeq	r0, [r0], -r0	; <UNPREDICTABLE>
 4f0:	00000100 	andeq	r0, r0, r0, lsl #2
 4f4:	00560001 	subseq	r0, r6, r1
 4f8:	34000001 	strcc	r0, [r0], #-1
 4fc:	01000001 	tsteq	r0, r1
 500:	01345000 	teqeq	r4, r0
 504:	01380000 	teqeq	r8, r0
 508:	00010000 	andeq	r0, r1, r0
 50c:	00000056 	andeq	r0, r0, r6, asr r0
 510:	00000000 	andeq	r0, r0, r0
 514:	0000cc00 	andeq	ip, r0, r0, lsl #24
 518:	0000d800 	andeq	sp, r0, r0, lsl #16
 51c:	51000100 	mrspl	r0, (UNDEF: 16)
 520:	000000d8 	ldrdeq	r0, [r0], -r8
 524:	000001d4 	ldrdeq	r0, [r0], -r4
 528:	00580001 	subseq	r0, r8, r1
 52c:	00000000 	andeq	r0, r0, r0
 530:	cc000000 	stcgt	0, cr0, [r0], {-0}
 534:	ec000000 	stc	0, cr0, [r0], {-0}
 538:	01000000 	mrseq	r0, (UNDEF: 0)
 53c:	00ec5200 	rsceq	r5, ip, r0, lsl #4
 540:	01380000 	teqeq	r8, r0
 544:	00010000 	andeq	r0, r1, r0
 548:	00000055 	andeq	r0, r0, r5, asr r0
 54c:	00000000 	andeq	r0, r0, r0
 550:	0000dc00 	andeq	sp, r0, r0, lsl #24
 554:	0000f400 	andeq	pc, r0, r0, lsl #8
 558:	11000300 	mrsne	r0, LR_irq
 55c:	010c9f00 	tsteq	ip, r0, lsl #30
 560:	01180000 	tsteq	r8, r0
 564:	00010000 	andeq	r0, r1, r0
 568:	00000051 	andeq	r0, r0, r1, asr r0
 56c:	00000000 	andeq	r0, r0, r0
 570:	0000dc00 	andeq	sp, r0, r0, lsl #24
 574:	0000f400 	andeq	pc, r0, r0, lsl #8
 578:	11000300 	mrsne	r0, LR_irq
 57c:	00f49f00 	rscseq	r9, r4, r0, lsl #30
 580:	01200000 			; <UNDEFINED> instruction: 0x01200000
 584:	00010000 	andeq	r0, r1, r0
 588:	00012054 	andeq	r2, r1, r4, asr r0
 58c:	00014000 	andeq	r4, r1, r0
 590:	51000100 	mrspl	r0, (UNDEF: 16)
	...
 59c:	0000013c 	andeq	r0, r0, ip, lsr r1
 5a0:	0000014c 	andeq	r0, r0, ip, asr #2
 5a4:	60580001 	subsvs	r0, r8, r1
 5a8:	68000001 	stmdavs	r0, {r0}
 5ac:	01000001 	tsteq	r0, r1
 5b0:	00005800 	andeq	r5, r0, r0, lsl #16
 5b4:	00000000 	andeq	r0, r0, r0
 5b8:	013c0000 	teqeq	ip, r0
 5bc:	014c0000 	mrseq	r0, (UNDEF: 76)
 5c0:	00030000 	andeq	r0, r3, r0
 5c4:	009f0011 	addseq	r0, pc, r1, lsl r0	; <UNPREDICTABLE>
 5c8:	00000000 	andeq	r0, r0, r0
 5cc:	3c000000 	stccc	0, cr0, [r0], {-0}
 5d0:	7c000001 	stcvc	0, cr0, [r0], {1}
 5d4:	03000001 	movweq	r0, #1
 5d8:	9f001100 	svcls	0x00001100
 5dc:	0000017c 	andeq	r0, r0, ip, ror r1
 5e0:	00000184 	andeq	r0, r0, r4, lsl #3
 5e4:	01110003 	tsteq	r1, r3
 5e8:	0001849f 	muleq	r1, pc, r4	; <UNPREDICTABLE>
 5ec:	0001a400 	andeq	sl, r1, r0, lsl #8
 5f0:	51000100 	mrspl	r0, (UNDEF: 16)
	...
 5fc:	0000013c 	andeq	r0, r0, ip, lsr r1
 600:	000001d4 	ldrdeq	r0, [r0], -r4
 604:	00580001 	subseq	r0, r8, r1
 608:	00000000 	andeq	r0, r0, r0
 60c:	98000000 	stmdals	r0, {}	; <UNPREDICTABLE>
 610:	a4000001 	strge	r0, [r0], #-1
 614:	03000001 	movweq	r0, #1
 618:	9f7f7000 	svcls	0x007f7000
	...
 624:	000001a8 	andeq	r0, r0, r8, lsr #3
 628:	000001b0 			; <UNDEFINED> instruction: 0x000001b0
 62c:	00580001 	subseq	r0, r8, r1
 630:	00000000 	andeq	r0, r0, r0
 634:	a8000000 	stmdage	r0, {}	; <UNPREDICTABLE>
 638:	b0000001 	andlt	r0, r0, r1
 63c:	03000001 	movweq	r0, #1
 640:	9f001100 	svcls	0x00001100
 644:	000001b8 			; <UNDEFINED> instruction: 0x000001b8
 648:	000001c8 	andeq	r0, r0, r8, asr #3
 64c:	00570001 	subseq	r0, r7, r1
 650:	00000000 	andeq	r0, r0, r0
 654:	d4000000 	strle	r0, [r0], #-0
 658:	58000001 	stmdapl	r0, {r0}
 65c:	01000002 	tsteq	r0, r2
 660:	02dc5000 	sbcseq	r5, ip, #0
 664:	04080000 	streq	r0, [r8], #-0
 668:	00010000 	andeq	r0, r1, r0
 66c:	00041c50 	andeq	r1, r4, r0, asr ip
 670:	00056400 	andeq	r6, r5, r0, lsl #8
 674:	50000100 	andpl	r0, r0, r0, lsl #2
 678:	00000574 	andeq	r0, r0, r4, ror r5
 67c:	000006e4 	andeq	r0, r0, r4, ror #13
 680:	f8500001 			; <UNDEFINED> instruction: 0xf8500001
 684:	44000006 	strmi	r0, [r0], #-6
 688:	01000007 	tsteq	r0, r7
 68c:	07545000 	ldrbeq	r5, [r4, -r0]
 690:	07580000 	ldrbeq	r0, [r8, -r0]
 694:	00010000 	andeq	r0, r1, r0
 698:	00075c50 	andeq	r5, r7, r0, asr ip
 69c:	00076800 	andeq	r6, r7, r0, lsl #16
 6a0:	50000100 	andpl	r0, r0, r0, lsl #2
 6a4:	00000768 	andeq	r0, r0, r8, ror #14
 6a8:	00000774 	andeq	r0, r0, r4, ror r7
 6ac:	01700003 	cmneq	r0, r3
 6b0:	0000009f 	muleq	r0, pc, r0	; <UNPREDICTABLE>
 6b4:	00000000 	andeq	r0, r0, r0
 6b8:	0001d400 	andeq	sp, r1, r0, lsl #8
 6bc:	00020400 	andeq	r0, r2, r0, lsl #8
 6c0:	51000100 	mrspl	r0, (UNDEF: 16)
 6c4:	00000764 	andeq	r0, r0, r4, ror #14
 6c8:	00000768 	andeq	r0, r0, r8, ror #14
 6cc:	00510001 	subseq	r0, r1, r1
 6d0:	00000000 	andeq	r0, r0, r0
 6d4:	d4000000 	strle	r0, [r0], #-0
 6d8:	58000001 	stmdapl	r0, {r0}
 6dc:	01000002 	tsteq	r0, r2
 6e0:	02dc5200 	sbcseq	r5, ip, #0, 4
 6e4:	077c0000 	ldrbeq	r0, [ip, -r0]!
 6e8:	00010000 	andeq	r0, r1, r0
 6ec:	00000052 	andeq	r0, r0, r2, asr r0
 6f0:	00000000 	andeq	r0, r0, r0
 6f4:	0001f800 	andeq	pc, r1, r0, lsl #16
 6f8:	00025800 	andeq	r5, r2, r0, lsl #16
 6fc:	5e000100 	adfpls	f0, f0, f0
 700:	000002dc 	ldrdeq	r0, [r0], -ip
 704:	00000594 	muleq	r0, r4, r5
 708:	945e0001 	ldrbls	r0, [lr], #-1
 70c:	78000005 	stmdavc	r0, {r0, r2}
 710:	02000006 	andeq	r0, r0, #6
 714:	78007d00 	stmdavc	r0, {r8, sl, fp, ip, sp, lr}
 718:	f8000006 			; <UNDEFINED> instruction: 0xf8000006
 71c:	01000006 	tsteq	r0, r6
 720:	06f85e00 	ldrbteq	r5, [r8], r0, lsl #28
 724:	072c0000 	streq	r0, [ip, -r0]!
 728:	00020000 	andeq	r0, r2, r0
 72c:	072c007d 			; <UNDEFINED> instruction: 0x072c007d
 730:	075c0000 	ldrbeq	r0, [ip, -r0]
 734:	00010000 	andeq	r0, r1, r0
 738:	00075c5e 	andeq	r5, r7, lr, asr ip
 73c:	00076000 	andeq	r6, r7, r0
 740:	7d000200 	sfmvc	f0, 4, [r0, #-0]
 744:	00076000 	andeq	r6, r7, r0
 748:	00076400 	andeq	r6, r7, r0, lsl #8
 74c:	5e000100 	adfpls	f0, f0, f0
	...
 758:	000001e0 	andeq	r0, r0, r0, ror #3
 75c:	00000204 	andeq	r0, r0, r4, lsl #4
 760:	00110003 	andseq	r0, r1, r3
 764:	0002109f 	muleq	r2, pc, r0	; <UNPREDICTABLE>
 768:	00025800 	andeq	r5, r2, r0, lsl #16
 76c:	57000100 	strpl	r0, [r0, -r0, lsl #2]
 770:	000002dc 	ldrdeq	r0, [r0], -ip
 774:	000002f0 	strdeq	r0, [r0], -r0	; <UNPREDICTABLE>
 778:	1c570001 	mrrcne	0, 0, r0, r7, cr1
 77c:	2c000004 	stccs	0, cr0, [r0], {4}
 780:	01000004 	tsteq	r0, r4
 784:	05105700 	ldreq	r5, [r0, #-1792]	; 0xfffff900
 788:	051c0000 	ldreq	r0, [ip, #-0]
 78c:	00010000 	andeq	r0, r1, r0
 790:	00051c57 	andeq	r1, r5, r7, asr ip
 794:	00052000 	andeq	r2, r5, r0
 798:	5a000100 	bpl	ba0 <__start__-0x1ff7f460>
 79c:	00000520 	andeq	r0, r0, r0, lsr #10
 7a0:	00000528 	andeq	r0, r0, r8, lsr #10
 7a4:	7c570001 	mrrcvc	0, 0, r0, r7, cr1
 7a8:	80000005 	andhi	r0, r0, r5
 7ac:	01000005 	tsteq	r0, r5
 7b0:	05805a00 	streq	r5, [r0, #2560]	; 0xa00
 7b4:	05900000 	ldreq	r0, [r0]
 7b8:	00010000 	andeq	r0, r1, r0
 7bc:	00067857 	andeq	r7, r6, r7, asr r8
 7c0:	00068800 	andeq	r8, r6, r0, lsl #16
 7c4:	57000100 	strpl	r0, [r0, -r0, lsl #2]
 7c8:	00000690 	muleq	r0, r0, r6
 7cc:	00000694 	muleq	r0, r4, r6
 7d0:	005a0001 	subseq	r0, sl, r1
 7d4:	00000000 	andeq	r0, r0, r0
 7d8:	e0000000 	and	r0, r0, r0
 7dc:	04000001 	streq	r0, [r0], #-1
 7e0:	03000002 	movweq	r0, #2
 7e4:	9f001100 	svcls	0x00001100
 7e8:	00000204 	andeq	r0, r0, r4, lsl #4
 7ec:	00000258 	andeq	r0, r0, r8, asr r2
 7f0:	dc5c0001 	mrrcle	0, 0, r0, ip, cr1
 7f4:	64000002 	strvs	r0, [r0], #-2
 7f8:	01000007 	tsteq	r0, r7
 7fc:	07645c00 	strbeq	r5, [r4, -r0, lsl #24]!
 800:	07680000 	strbeq	r0, [r8, -r0]!
 804:	00030000 	andeq	r0, r3, r0
 808:	689f0011 	ldmvs	pc, {r0, r4}	; <UNPREDICTABLE>
 80c:	74000007 	strvc	r0, [r0], #-7
 810:	01000007 	tsteq	r0, r7
 814:	07745c00 	ldrbeq	r5, [r4, -r0, lsl #24]!
 818:	077c0000 	ldrbeq	r0, [ip, -r0]!
 81c:	00010000 	andeq	r0, r1, r0
 820:	00000050 	andeq	r0, r0, r0, asr r0
 824:	00000000 	andeq	r0, r0, r0
 828:	0002e000 	andeq	lr, r2, r0
 82c:	0002f000 	andeq	pc, r2, r0
 830:	53000100 	movwpl	r0, #256	; 0x100
	...
 83c:	000002ec 	andeq	r0, r0, ip, ror #5
 840:	00000300 	andeq	r0, r0, r0, lsl #6
 844:	00530001 	subseq	r0, r3, r1
 848:	30000003 	andcc	r0, r0, r3
 84c:	01000003 	tsteq	r0, r3
 850:	00005600 	andeq	r5, r0, r0, lsl #12
 854:	00000000 	andeq	r0, r0, r0
 858:	03080000 	movweq	r0, #32768	; 0x8000
 85c:	030c0000 	movweq	r0, #49152	; 0xc000
 860:	00010000 	andeq	r0, r1, r0
 864:	00000054 	andeq	r0, r0, r4, asr r0
 868:	00000000 	andeq	r0, r0, r0
 86c:	0002f000 	andeq	pc, r2, r0
 870:	00031400 	andeq	r1, r3, r0, lsl #8
 874:	57000100 	strpl	r0, [r0, -r0, lsl #2]
 878:	00000314 	andeq	r0, r0, r4, lsl r3
 87c:	00000368 	andeq	r0, r0, r8, ror #6
 880:	00540001 	subseq	r0, r4, r1
 884:	00000000 	andeq	r0, r0, r0
 888:	f0000000 			; <UNDEFINED> instruction: 0xf0000000
 88c:	d8000002 	stmdale	r0, {r1}
 890:	03000003 	movweq	r0, #3
 894:	9f141100 	svcls	0x00141100
 898:	00000694 	muleq	r0, r4, r6
 89c:	0000069c 	muleq	r0, ip, r6
 8a0:	14110003 	ldrne	r0, [r1], #-3
 8a4:	0000009f 	muleq	r0, pc, r0	; <UNPREDICTABLE>
 8a8:	00000000 	andeq	r0, r0, r0
 8ac:	0002f000 	andeq	pc, r2, r0
 8b0:	0003d800 	andeq	sp, r3, r0, lsl #16
 8b4:	11000300 	mrsne	r0, LR_irq
 8b8:	06949f0a 	ldreq	r9, [r4], sl, lsl #30
 8bc:	069c0000 	ldreq	r0, [ip], r0
 8c0:	00030000 	andeq	r0, r3, r0
 8c4:	009f0a11 	addseq	r0, pc, r1, lsl sl	; <UNPREDICTABLE>
 8c8:	00000000 	andeq	r0, r0, r0
 8cc:	f0000000 			; <UNDEFINED> instruction: 0xf0000000
 8d0:	d8000002 	stmdale	r0, {r1}
 8d4:	03000003 	movweq	r0, #3
 8d8:	9f087d00 	svcls	0x00087d00
 8dc:	00000694 	muleq	r0, r4, r6
 8e0:	0000069c 	muleq	r0, ip, r6
 8e4:	087d0003 	ldmdaeq	sp!, {r0, r1}^
 8e8:	0000009f 	muleq	r0, pc, r0	; <UNPREDICTABLE>
 8ec:	00000000 	andeq	r0, r0, r0
 8f0:	00032c00 	andeq	r2, r3, r0, lsl #24
 8f4:	0003d800 	andeq	sp, r3, r0, lsl #16
 8f8:	7d000300 	stcvc	3, cr0, [r0, #-0]
 8fc:	06949f08 	ldreq	r9, [r4], r8, lsl #30
 900:	069c0000 	ldreq	r0, [ip], r0
 904:	00030000 	andeq	r0, r3, r0
 908:	009f087d 	addseq	r0, pc, sp, ror r8	; <UNPREDICTABLE>
 90c:	00000000 	andeq	r0, r0, r0
 910:	2c000000 	stccs	0, cr0, [r0], {-0}
 914:	78000003 	stmdavc	r0, {r0, r1}
 918:	03000003 	movweq	r0, #3
 91c:	9f001100 	svcls	0x00001100
 920:	00000378 	andeq	r0, r0, r8, ror r3
 924:	00000384 	andeq	r0, r0, r4, lsl #7
 928:	01110003 	tsteq	r1, r3
 92c:	0003849f 	muleq	r3, pc, r4	; <UNPREDICTABLE>
 930:	0003a400 	andeq	sl, r3, r0, lsl #8
 934:	57000100 	strpl	r0, [r0, -r0, lsl #2]
	...
 940:	0000032c 	andeq	r0, r0, ip, lsr #6
 944:	0000033c 	andeq	r0, r0, ip, lsr r3
 948:	087d0005 	ldmdaeq	sp!, {r0, r2}^
 94c:	3c9f0123 	ldfccs	f0, [pc], {35}	; 0x23
 950:	48000003 	stmdami	r0, {r0, r1}
 954:	03000003 	movweq	r0, #3
 958:	9f087d00 	svcls	0x00087d00
	...
 964:	0000032c 	andeq	r0, r0, ip, lsr #6
 968:	00000348 	andeq	r0, r0, r8, asr #6
 96c:	00110003 	andseq	r0, r1, r3
 970:	0003489f 	muleq	r3, pc, r8	; <UNPREDICTABLE>
 974:	00035c00 	andeq	r5, r3, r0, lsl #24
 978:	57000100 	strpl	r0, [r0, -r0, lsl #2]
	...
 984:	0000035c 	andeq	r0, r0, ip, asr r3
 988:	00000384 	andeq	r0, r0, r4, lsl #7
 98c:	7f770003 	svcvc	0x00770003
 990:	0003989f 	muleq	r3, pc, r8	; <UNPREDICTABLE>
 994:	0003a400 	andeq	sl, r3, r0, lsl #8
 998:	76000300 	strvc	r0, [r0], -r0, lsl #6
 99c:	00009f7f 	andeq	r9, r0, pc, ror pc
 9a0:	00000000 	andeq	r0, r0, r0
 9a4:	03a80000 			; <UNDEFINED> instruction: 0x03a80000
 9a8:	03b00000 	movseq	r0, #0
 9ac:	00030000 	andeq	r0, r3, r0
 9b0:	949f087d 	ldrls	r0, [pc], #2173	; 9b8 <__start__-0x1ff7f648>
 9b4:	9c000006 	stcls	0, cr0, [r0], {6}
 9b8:	03000006 	movweq	r0, #6
 9bc:	9f087d00 	svcls	0x00087d00
	...
 9c8:	000003a8 	andeq	r0, r0, r8, lsr #7
 9cc:	000003b0 			; <UNDEFINED> instruction: 0x000003b0
 9d0:	00110003 	andseq	r0, r1, r3
 9d4:	0003b49f 	muleq	r3, pc, r4	; <UNPREDICTABLE>
 9d8:	0003c400 	andeq	ip, r3, r0, lsl #8
 9dc:	57000100 	strpl	r0, [r0, -r0, lsl #2]
 9e0:	00000694 	muleq	r0, r4, r6
 9e4:	0000069c 	muleq	r0, ip, r6
 9e8:	00110003 	andseq	r0, r1, r3
 9ec:	0000009f 	muleq	r0, pc, r0	; <UNPREDICTABLE>
 9f0:	00000000 	andeq	r0, r0, r0
 9f4:	0003c800 	andeq	ip, r3, r0, lsl #16
 9f8:	0003e000 	andeq	lr, r3, r0
 9fc:	7d000300 	stcvc	3, cr0, [r0, #-0]
 a00:	03ec9f08 	mvneq	r9, #8, 30
 a04:	04040000 	streq	r0, [r4], #-0
 a08:	00030000 	andeq	r0, r3, r0
 a0c:	009f087d 	addseq	r0, pc, sp, ror r8	; <UNPREDICTABLE>
 a10:	00000000 	andeq	r0, r0, r0
 a14:	c8000000 	stmdagt	r0, {}	; <UNPREDICTABLE>
 a18:	e0000003 	and	r0, r0, r3
 a1c:	03000003 	movweq	r0, #3
 a20:	9f001100 	svcls	0x00001100
 a24:	00000400 	andeq	r0, r0, r0, lsl #8
 a28:	00000404 	andeq	r0, r0, r4, lsl #8
 a2c:	00110003 	andseq	r0, r1, r3
 a30:	0000009f 	muleq	r0, pc, r0	; <UNPREDICTABLE>
 a34:	00000000 	andeq	r0, r0, r0
 a38:	0003ec00 	andeq	lr, r3, r0, lsl #24
 a3c:	0003f400 	andeq	pc, r3, r0, lsl #8
 a40:	11000300 	mrsne	r0, LR_irq
 a44:	03f49f00 	mvnseq	r9, #0, 30
 a48:	04080000 	streq	r0, [r8], #-0
 a4c:	00030000 	andeq	r0, r3, r0
 a50:	009f0111 	addseq	r0, pc, r1, lsl r1	; <UNPREDICTABLE>
 a54:	00000000 	andeq	r0, r0, r0
 a58:	20000000 	andcs	r0, r0, r0
 a5c:	2c000004 	stccs	0, cr0, [r0], {4}
 a60:	01000004 	tsteq	r0, r4
 a64:	00005600 	andeq	r5, r0, r0, lsl #12
 a68:	00000000 	andeq	r0, r0, r0
 a6c:	042c0000 	strteq	r0, [ip], #-0
 a70:	04500000 	ldrbeq	r0, [r0], #-0
 a74:	00010000 	andeq	r0, r1, r0
 a78:	00045057 	andeq	r5, r4, r7, asr r0
 a7c:	0004b800 	andeq	fp, r4, r0, lsl #16
 a80:	54000100 	strpl	r0, [r0], #-256	; 0xffffff00
	...
 a8c:	0000042c 	andeq	r0, r0, ip, lsr #8
 a90:	00000448 	andeq	r0, r0, r8, asr #8
 a94:	5c560001 	mrrcpl	0, 0, r0, r6, cr1
 a98:	60000004 	andvs	r0, r0, r4
 a9c:	01000004 	tsteq	r0, r4
 aa0:	04605600 	strbteq	r5, [r0], #-1536	; 0xfffffa00
 aa4:	046c0000 	strbteq	r0, [ip], #-0
 aa8:	00010000 	andeq	r0, r1, r0
 aac:	00046c51 	andeq	r6, r4, r1, asr ip
 ab0:	00047800 	andeq	r7, r4, r0, lsl #16
 ab4:	56000100 	strpl	r0, [r0], -r0, lsl #2
	...
 ac0:	0000043c 	andeq	r0, r0, ip, lsr r4
 ac4:	0000044c 	andeq	r0, r0, ip, asr #8
 ac8:	00510001 	subseq	r0, r1, r1
 acc:	00000000 	andeq	r0, r0, r0
 ad0:	74000000 	strvc	r0, [r0], #-0
 ad4:	10000004 	andne	r0, r0, r4
 ad8:	03000005 	movweq	r0, #5
 adc:	9f087d00 	svcls	0x00087d00
 ae0:	0000069c 	muleq	r0, ip, r6
 ae4:	000006b4 			; <UNDEFINED> instruction: 0x000006b4
 ae8:	087d0003 	ldmdaeq	sp!, {r0, r1}^
 aec:	0000009f 	muleq	r0, pc, r0	; <UNPREDICTABLE>
 af0:	00000000 	andeq	r0, r0, r0
 af4:	00047400 	andeq	r7, r4, r0, lsl #8
 af8:	0004c000 	andeq	ip, r4, r0
 afc:	11000300 	mrsne	r0, LR_irq
 b00:	04c09f00 	strbeq	r9, [r0], #3840	; 0xf00
 b04:	04cc0000 	strbeq	r0, [ip], #0
 b08:	00030000 	andeq	r0, r3, r0
 b0c:	cc9f0111 	ldfgts	f0, [pc], {17}
 b10:	ec000004 	stc	0, cr0, [r0], {4}
 b14:	01000004 	tsteq	r0, r4
 b18:	00005700 	andeq	r5, r0, r0, lsl #14
 b1c:	00000000 	andeq	r0, r0, r0
 b20:	04740000 	ldrbteq	r0, [r4], #-0
 b24:	04840000 	streq	r0, [r4], #0
 b28:	00050000 	andeq	r0, r5, r0
 b2c:	0123087d 			; <UNDEFINED> instruction: 0x0123087d
 b30:	0004849f 	muleq	r4, pc, r4	; <UNPREDICTABLE>
 b34:	00049000 	andeq	r9, r4, r0
 b38:	7d000300 	stcvc	3, cr0, [r0, #-0]
 b3c:	00009f08 	andeq	r9, r0, r8, lsl #30
 b40:	00000000 	andeq	r0, r0, r0
 b44:	04740000 	ldrbteq	r0, [r4], #-0
 b48:	04900000 	ldreq	r0, [r0], #0
 b4c:	00030000 	andeq	r0, r3, r0
 b50:	909f0011 	addsls	r0, pc, r1, lsl r0	; <UNPREDICTABLE>
 b54:	a4000004 	strge	r0, [r0], #-4
 b58:	01000004 	tsteq	r0, r4
 b5c:	00005700 	andeq	r5, r0, r0, lsl #14
 b60:	00000000 	andeq	r0, r0, r0
 b64:	04a40000 	strteq	r0, [r4], #0
 b68:	04cc0000 	strbeq	r0, [ip], #0
 b6c:	00030000 	andeq	r0, r3, r0
 b70:	e09f7f77 	adds	r7, pc, r7, ror pc	; <UNPREDICTABLE>
 b74:	ec000004 	stc	0, cr0, [r0], {4}
 b78:	03000004 	movweq	r0, #4
 b7c:	9f7f7600 	svcls	0x007f7600
	...
 b88:	000004f0 	strdeq	r0, [r0], -r0	; <UNPREDICTABLE>
 b8c:	000004f8 	strdeq	r0, [r0], -r8
 b90:	087d0003 	ldmdaeq	sp!, {r0, r1}^
 b94:	00069c9f 	muleq	r6, pc, ip	; <UNPREDICTABLE>
 b98:	0006a000 	andeq	sl, r6, r0
 b9c:	7d000300 	stcvc	3, cr0, [r0, #-0]
 ba0:	00009f08 	andeq	r9, r0, r8, lsl #30
 ba4:	00000000 	andeq	r0, r0, r0
 ba8:	04f00000 	ldrbteq	r0, [r0], #0
 bac:	04f80000 	ldrbteq	r0, [r8], #0
 bb0:	00030000 	andeq	r0, r3, r0
 bb4:	fc9f0011 	ldc2	0, cr0, [pc], {17}
 bb8:	10000004 	andne	r0, r0, r4
 bbc:	01000005 	tsteq	r0, r5
 bc0:	069c5700 	ldreq	r5, [ip], r0, lsl #14
 bc4:	06a00000 	strteq	r0, [r0], r0
 bc8:	00030000 	andeq	r0, r3, r0
 bcc:	009f0011 	addseq	r0, pc, r1, lsl r0	; <UNPREDICTABLE>
 bd0:	00000000 	andeq	r0, r0, r0
 bd4:	24000000 	strcs	r0, [r0], #-0
 bd8:	40000005 	andmi	r0, r0, r5
 bdc:	03000005 	movweq	r0, #5
 be0:	9f001100 	svcls	0x00001100
 be4:	0000055c 	andeq	r0, r0, ip, asr r5
 be8:	00000560 	andeq	r0, r0, r0, ror #10
 bec:	00110003 	andseq	r0, r1, r3
 bf0:	0000009f 	muleq	r0, pc, r0	; <UNPREDICTABLE>
 bf4:	00000000 	andeq	r0, r0, r0
 bf8:	00052400 	andeq	r2, r5, r0, lsl #8
 bfc:	00053800 	andeq	r3, r5, r0, lsl #16
 c00:	53000100 	movwpl	r0, #256	; 0x100
	...
 c0c:	00000524 	andeq	r0, r0, r4, lsr #10
 c10:	00000538 	andeq	r0, r0, r8, lsr r5
 c14:	88530001 	ldmdahi	r3, {r0}^
 c18:	94000006 	strls	r0, [r0], #-6
 c1c:	01000006 	tsteq	r0, r6
 c20:	00005300 	andeq	r5, r0, r0, lsl #6
 c24:	00000000 	andeq	r0, r0, r0
 c28:	054c0000 	strbeq	r0, [ip, #-0]
 c2c:	05500000 	ldrbeq	r0, [r0, #-0]
 c30:	00030000 	andeq	r0, r3, r0
 c34:	509f0011 	addspl	r0, pc, r1, lsl r0	; <UNPREDICTABLE>
 c38:	64000005 	strvs	r0, [r0], #-5
 c3c:	03000005 	movweq	r0, #5
 c40:	9f011100 	svcls	0x00011100
	...
 c4c:	00000584 	andeq	r0, r0, r4, lsl #11
 c50:	00000594 	muleq	r0, r4, r5
 c54:	00560001 	subseq	r0, r6, r1
 c58:	00000000 	andeq	r0, r0, r0
 c5c:	90000000 	andls	r0, r0, r0
 c60:	94000005 	strls	r0, [r0], #-5
 c64:	03000005 	movweq	r0, #5
 c68:	9f001100 	svcls	0x00001100
 c6c:	000005a4 	andeq	r0, r0, r4, lsr #11
 c70:	000005b8 			; <UNDEFINED> instruction: 0x000005b8
 c74:	00510001 	subseq	r0, r1, r1
 c78:	00000000 	andeq	r0, r0, r0
 c7c:	90000000 	andls	r0, r0, r0
 c80:	94000005 	strls	r0, [r0], #-5
 c84:	03000005 	movweq	r0, #5
 c88:	9f001100 	svcls	0x00001100
 c8c:	00000594 	muleq	r0, r4, r5
 c90:	000005b4 			; <UNDEFINED> instruction: 0x000005b4
 c94:	b4570001 	ldrblt	r0, [r7], #-1
 c98:	78000005 	stmdavc	r0, {r0, r2}
 c9c:	01000006 	tsteq	r0, r6
 ca0:	06f85e00 	ldrbteq	r5, [r8], r0, lsl #28
 ca4:	07140000 	ldreq	r0, [r4, -r0]
 ca8:	00010000 	andeq	r0, r1, r0
 cac:	00075c5e 	andeq	r5, r7, lr, asr ip
 cb0:	00076000 	andeq	r6, r7, r0
 cb4:	5e000100 	adfpls	f0, f0, f0
	...
 cc0:	00000590 	muleq	r0, r0, r5
 cc4:	00000678 	andeq	r0, r0, r8, ror r6
 cc8:	14110003 	ldrne	r0, [r1], #-3
 ccc:	0006f89f 	muleq	r6, pc, r8	; <UNPREDICTABLE>
 cd0:	00071400 	andeq	r1, r7, r0, lsl #8
 cd4:	11000300 	mrsne	r0, LR_irq
 cd8:	075c9f14 	smmlaeq	ip, r4, pc, r9	; <UNPREDICTABLE>
 cdc:	07640000 	strbeq	r0, [r4, -r0]!
 ce0:	00030000 	andeq	r0, r3, r0
 ce4:	009f1411 	addseq	r1, pc, r1, lsl r4	; <UNPREDICTABLE>
 ce8:	00000000 	andeq	r0, r0, r0
 cec:	90000000 	andls	r0, r0, r0
 cf0:	78000005 	stmdavc	r0, {r0, r2}
 cf4:	03000006 	movweq	r0, #6
 cf8:	9f101100 	svcls	0x00101100
 cfc:	000006f8 	strdeq	r0, [r0], -r8
 d00:	00000714 	andeq	r0, r0, r4, lsl r7
 d04:	10110003 	andsne	r0, r1, r3
 d08:	00075c9f 	muleq	r7, pc, ip	; <UNPREDICTABLE>
 d0c:	00076400 	andeq	r6, r7, r0, lsl #8
 d10:	11000300 	mrsne	r0, LR_irq
 d14:	00009f10 	andeq	r9, r0, r0, lsl pc
 d18:	00000000 	andeq	r0, r0, r0
 d1c:	05900000 	ldreq	r0, [r0]
 d20:	06780000 	ldrbteq	r0, [r8], -r0
 d24:	00030000 	andeq	r0, r3, r0
 d28:	f89f087d 			; <UNDEFINED> instruction: 0xf89f087d
 d2c:	14000006 	strne	r0, [r0], #-6
 d30:	03000007 	movweq	r0, #7
 d34:	9f087d00 	svcls	0x00087d00
 d38:	0000075c 	andeq	r0, r0, ip, asr r7
 d3c:	00000764 	andeq	r0, r0, r4, ror #14
 d40:	087d0003 	ldmdaeq	sp!, {r0, r1}^
 d44:	0000009f 	muleq	r0, pc, r0	; <UNPREDICTABLE>
 d48:	00000000 	andeq	r0, r0, r0
 d4c:	00059000 	andeq	r9, r5, r0
 d50:	0005b000 	andeq	fp, r5, r0
 d54:	56000100 	strpl	r0, [r0], -r0, lsl #2
 d58:	000005c4 	andeq	r0, r0, r4, asr #11
 d5c:	000005c8 	andeq	r0, r0, r8, asr #11
 d60:	c8560001 	ldmdagt	r6, {r0}^
 d64:	d4000005 	strle	r0, [r0], #-5
 d68:	01000005 	tsteq	r0, r5
 d6c:	05d45100 	ldrbeq	r5, [r4, #256]	; 0x100
 d70:	05e00000 	strbeq	r0, [r0, #0]!
 d74:	00010000 	andeq	r0, r1, r0
 d78:	00000056 	andeq	r0, r0, r6, asr r0
 d7c:	00000000 	andeq	r0, r0, r0
 d80:	0005dc00 	andeq	sp, r5, r0, lsl #24
 d84:	00067800 	andeq	r7, r6, r0, lsl #16
 d88:	7d000300 	stcvc	3, cr0, [r0, #-0]
 d8c:	06f89f08 	ldrbteq	r9, [r8], r8, lsl #30
 d90:	07140000 	ldreq	r0, [r4, -r0]
 d94:	00030000 	andeq	r0, r3, r0
 d98:	5c9f087d 	ldcpl	8, cr0, [pc], {125}	; 0x7d
 d9c:	64000007 	strvs	r0, [r0], #-7
 da0:	03000007 	movweq	r0, #7
 da4:	9f087d00 	svcls	0x00087d00
	...
 db0:	000005dc 	ldrdeq	r0, [r0], -ip
 db4:	00000628 	andeq	r0, r0, r8, lsr #12
 db8:	00110003 	andseq	r0, r1, r3
 dbc:	0006289f 	muleq	r6, pc, r8	; <UNPREDICTABLE>
 dc0:	00063400 	andeq	r3, r6, r0, lsl #8
 dc4:	11000300 	mrsne	r0, LR_irq
 dc8:	06349f01 	ldrteq	r9, [r4], -r1, lsl #30
 dcc:	06540000 	ldrbeq	r0, [r4], -r0
 dd0:	00010000 	andeq	r0, r1, r0
 dd4:	00000057 	andeq	r0, r0, r7, asr r0
 dd8:	00000000 	andeq	r0, r0, r0
 ddc:	0005dc00 	andeq	sp, r5, r0, lsl #24
 de0:	0005ec00 	andeq	lr, r5, r0, lsl #24
 de4:	7d000500 	cfstr32vc	mvfx0, [r0, #-0]
 de8:	9f012308 	svcls	0x00012308
 dec:	000005ec 	andeq	r0, r0, ip, ror #11
 df0:	000005f8 	strdeq	r0, [r0], -r8
 df4:	087d0003 	ldmdaeq	sp!, {r0, r1}^
 df8:	0000009f 	muleq	r0, pc, r0	; <UNPREDICTABLE>
 dfc:	00000000 	andeq	r0, r0, r0
 e00:	0005dc00 	andeq	sp, r5, r0, lsl #24
 e04:	0005f800 	andeq	pc, r5, r0, lsl #16
 e08:	11000300 	mrsne	r0, LR_irq
 e0c:	05f89f00 	ldrbeq	r9, [r8, #3840]!	; 0xf00
 e10:	060c0000 	streq	r0, [ip], -r0
 e14:	00010000 	andeq	r0, r1, r0
 e18:	00000057 	andeq	r0, r0, r7, asr r0
 e1c:	00000000 	andeq	r0, r0, r0
 e20:	00060c00 	andeq	r0, r6, r0, lsl #24
 e24:	00063400 	andeq	r3, r6, r0, lsl #8
 e28:	77000300 	strvc	r0, [r0, -r0, lsl #6]
 e2c:	06489f7f 			; <UNDEFINED> instruction: 0x06489f7f
 e30:	06540000 	ldrbeq	r0, [r4], -r0
 e34:	00030000 	andeq	r0, r3, r0
 e38:	009f7f76 	addseq	r7, pc, r6, ror pc	; <UNPREDICTABLE>
 e3c:	00000000 	andeq	r0, r0, r0
 e40:	58000000 	stmdapl	r0, {}	; <UNPREDICTABLE>
 e44:	60000006 	andvs	r0, r0, r6
 e48:	03000006 	movweq	r0, #6
 e4c:	9f087d00 	svcls	0x00087d00
 e50:	000006f8 	strdeq	r0, [r0], -r8
 e54:	000006fc 	strdeq	r0, [r0], -ip
 e58:	087d0003 	ldmdaeq	sp!, {r0, r1}^
 e5c:	0000009f 	muleq	r0, pc, r0	; <UNPREDICTABLE>
 e60:	00000000 	andeq	r0, r0, r0
 e64:	00065800 	andeq	r5, r6, r0, lsl #16
 e68:	00066000 	andeq	r6, r6, r0
 e6c:	11000300 	mrsne	r0, LR_irq
 e70:	06649f00 	strbteq	r9, [r4], -r0, lsl #30
 e74:	06780000 	ldrbteq	r0, [r8], -r0
 e78:	00010000 	andeq	r0, r1, r0
 e7c:	0006f857 	andeq	pc, r6, r7, asr r8	; <UNPREDICTABLE>
 e80:	0006fc00 	andeq	pc, r6, r0, lsl #24
 e84:	11000300 	mrsne	r0, LR_irq
 e88:	00009f00 	andeq	r9, r0, r0, lsl #30
 e8c:	00000000 	andeq	r0, r0, r0
 e90:	06a40000 	strteq	r0, [r4], r0
 e94:	06bc0000 	ldrteq	r0, [ip], r0
 e98:	00030000 	andeq	r0, r3, r0
 e9c:	c89f087d 	ldmgt	pc, {r0, r2, r3, r4, r5, r6, fp}	; <UNPREDICTABLE>
 ea0:	e0000006 	and	r0, r0, r6
 ea4:	03000006 	movweq	r0, #6
 ea8:	9f087d00 	svcls	0x00087d00
	...
 eb4:	000006a4 	andeq	r0, r0, r4, lsr #13
 eb8:	000006bc 			; <UNDEFINED> instruction: 0x000006bc
 ebc:	00110003 	andseq	r0, r1, r3
 ec0:	0006d89f 	muleq	r6, pc, r8	; <UNPREDICTABLE>
 ec4:	0006e000 	andeq	lr, r6, r0
 ec8:	11000300 	mrsne	r0, LR_irq
 ecc:	00009f00 	andeq	r9, r0, r0, lsl #30
 ed0:	00000000 	andeq	r0, r0, r0
 ed4:	06c80000 	strbeq	r0, [r8], r0
 ed8:	06cc0000 	strbeq	r0, [ip], r0
 edc:	00030000 	andeq	r0, r3, r0
 ee0:	cc9f0011 	ldcgt	0, cr0, [pc], {17}
 ee4:	e4000006 	str	r0, [r0], #-6
 ee8:	03000006 	movweq	r0, #6
 eec:	9f011100 	svcls	0x00011100
	...
 ef8:	00000700 	andeq	r0, r0, r0, lsl #14
 efc:	0000071c 	andeq	r0, r0, ip, lsl r7
 f00:	087d0003 	ldmdaeq	sp!, {r0, r1}^
 f04:	0007289f 	muleq	r7, pc, r8	; <UNPREDICTABLE>
 f08:	00074000 	andeq	r4, r7, r0
 f0c:	7d000300 	stcvc	3, cr0, [r0, #-0]
 f10:	075c9f08 	ldrbeq	r9, [ip, -r8, lsl #30]
 f14:	07640000 	strbeq	r0, [r4, -r0]!
 f18:	00030000 	andeq	r0, r3, r0
 f1c:	009f087d 	addseq	r0, pc, sp, ror r8	; <UNPREDICTABLE>
	...
 f28:	1c000007 	stcne	0, cr0, [r0], {7}
 f2c:	03000007 	movweq	r0, #7
 f30:	9f001100 	svcls	0x00001100
 f34:	0000073c 	andeq	r0, r0, ip, lsr r7
 f38:	00000740 	andeq	r0, r0, r0, asr #14
 f3c:	00110003 	andseq	r0, r1, r3
 f40:	00075c9f 	muleq	r7, pc, ip	; <UNPREDICTABLE>
 f44:	00076400 	andeq	r6, r7, r0, lsl #8
 f48:	11000300 	mrsne	r0, LR_irq
 f4c:	00009f00 	andeq	r9, r0, r0, lsl #30
 f50:	00000000 	andeq	r0, r0, r0
 f54:	07280000 	streq	r0, [r8, -r0]!
 f58:	07300000 	ldreq	r0, [r0, -r0]!
 f5c:	00030000 	andeq	r0, r3, r0
 f60:	309f0011 	addscc	r0, pc, r1, lsl r0	; <UNPREDICTABLE>
 f64:	44000007 	strmi	r0, [r0], #-7
 f68:	03000007 	movweq	r0, #7
 f6c:	9f011100 	svcls	0x00011100
	...
 f7c:	00000018 	andeq	r0, r0, r8, lsl r0
 f80:	18500001 	ldmdane	r0, {r0}^
 f84:	30000000 	andcc	r0, r0, r0
 f88:	01000000 	mrseq	r0, (UNDEF: 0)
 f8c:	00305500 	eorseq	r5, r0, r0, lsl #10
 f90:	00380000 	eorseq	r0, r8, r0
 f94:	00010000 	andeq	r0, r1, r0
 f98:	00000052 	andeq	r0, r0, r2, asr r0
 f9c:	00000000 	andeq	r0, r0, r0
 fa0:	00003800 	andeq	r3, r0, r0, lsl #16
 fa4:	00005000 	andeq	r5, r0, r0
 fa8:	30000200 	andcc	r0, r0, r0, lsl #4
 fac:	0000009f 	muleq	r0, pc, r0	; <UNPREDICTABLE>
 fb0:	00000000 	andeq	r0, r0, r0
 fb4:	00003800 	andeq	r3, r0, r0, lsl #16
 fb8:	00004c00 	andeq	r4, r0, r0, lsl #24
 fbc:	50000100 	andpl	r0, r0, r0, lsl #2
 fc0:	0000004c 	andeq	r0, r0, ip, asr #32
 fc4:	00000050 	andeq	r0, r0, r0, asr r0
 fc8:	00550001 	subseq	r0, r5, r1
 fcc:	00000000 	andeq	r0, r0, r0
 fd0:	Address 0x0000000000000fd0 is out of bounds.


Disassembly of section .ARM.attributes:

00000000 <.ARM.attributes>:
   0:	00001941 	andeq	r1, r0, r1, asr #18
   4:	61656100 	cmnvs	r5, r0, lsl #2
   8:	01006962 	tsteq	r0, r2, ror #18
   c:	0000000f 	andeq	r0, r0, pc
  10:	004b3605 	subeq	r3, fp, r5, lsl #12
  14:	01080906 	tsteq	r8, r6, lsl #18
  18:	Address 0x0000000000000018 is out of bounds.


Disassembly of section .debug_ranges:

00000000 <.debug_ranges>:
   0:	00000010 	andeq	r0, r0, r0, lsl r0
   4:	00000018 	andeq	r0, r0, r8, lsl r0
   8:	00000068 	andeq	r0, r0, r8, rrx
   c:	00000078 	andeq	r0, r0, r8, ror r0
  10:	0000007c 	andeq	r0, r0, ip, ror r0
  14:	0000008c 	andeq	r0, r0, ip, lsl #1
  18:	000000a4 	andeq	r0, r0, r4, lsr #1
  1c:	000000b8 	strheq	r0, [r0], -r8
  20:	000000bc 	strheq	r0, [r0], -ip
  24:	000000cc 	andeq	r0, r0, ip, asr #1
  28:	000000d0 	ldrdeq	r0, [r0], -r0	; <UNPREDICTABLE>
  2c:	000000e0 	andeq	r0, r0, r0, ror #1
  30:	000000e8 	andeq	r0, r0, r8, ror #1
  34:	00000114 	andeq	r0, r0, r4, lsl r1
  38:	0000011c 	andeq	r0, r0, ip, lsl r1
  3c:	00000130 	andeq	r0, r0, r0, lsr r1
	...
  48:	00000010 	andeq	r0, r0, r0, lsl r0
  4c:	00000018 	andeq	r0, r0, r8, lsl r0
  50:	00000064 	andeq	r0, r0, r4, rrx
  54:	0000013c 	andeq	r0, r0, ip, lsr r1
	...
  60:	00000010 	andeq	r0, r0, r0, lsl r0
  64:	00000018 	andeq	r0, r0, r8, lsl r0
  68:	00000064 	andeq	r0, r0, r4, rrx
  6c:	0000013c 	andeq	r0, r0, ip, lsr r1
	...
  78:	00000010 	andeq	r0, r0, r0, lsl r0
  7c:	00000018 	andeq	r0, r0, r8, lsl r0
  80:	00000060 	andeq	r0, r0, r0, rrx
  84:	0000013c 	andeq	r0, r0, ip, lsr r1
	...
  90:	0000012c 	andeq	r0, r0, ip, lsr #2
  94:	00000230 	andeq	r0, r0, r0, lsr r2
  98:	00000234 	andeq	r0, r0, r4, lsr r2
  9c:	0000027c 	andeq	r0, r0, ip, ror r2
  a0:	00000280 	andeq	r0, r0, r0, lsl #5
  a4:	0000028c 	andeq	r0, r0, ip, lsl #5
	...
  b0:	0000012c 	andeq	r0, r0, ip, lsr #2
  b4:	00000230 	andeq	r0, r0, r0, lsr r2
  b8:	00000234 	andeq	r0, r0, r4, lsr r2
  bc:	0000027c 	andeq	r0, r0, ip, ror r2
  c0:	00000280 	andeq	r0, r0, r0, lsl #5
  c4:	0000028c 	andeq	r0, r0, ip, lsl #5
	...
  d0:	000002d0 	ldrdeq	r0, [r0], -r0	; <UNPREDICTABLE>
  d4:	000002d4 	ldrdeq	r0, [r0], -r4
  d8:	000002e0 	andeq	r0, r0, r0, ror #5
  dc:	000002e4 	andeq	r0, r0, r4, ror #5
  e0:	000002e8 	andeq	r0, r0, r8, ror #5
  e4:	0000032c 	andeq	r0, r0, ip, lsr #6
	...
  f0:	1fffffa0 	svcne	0x00ffffa0
  f4:	1fffffe8 	svcne	0x00ffffe8
  f8:	1ff80510 	svcne	0x00f80510
  fc:	1ff8053c 	svcne	0x00f8053c
	...
 108:	0000002c 	andeq	r0, r0, ip, lsr #32
 10c:	00000034 	andeq	r0, r0, r4, lsr r0
 110:	00000038 	andeq	r0, r0, r8, lsr r0
 114:	00000058 	andeq	r0, r0, r8, asr r0
	...
 120:	00000034 	andeq	r0, r0, r4, lsr r0
 124:	00000038 	andeq	r0, r0, r8, lsr r0
 128:	0000009c 	muleq	r0, ip, r0
 12c:	000000c4 	andeq	r0, r0, r4, asr #1
	...
 138:	0000032c 	andeq	r0, r0, ip, lsr #6
 13c:	0000033c 	andeq	r0, r0, ip, lsr r3
 140:	00000340 	andeq	r0, r0, r0, asr #6
 144:	000003c8 	andeq	r0, r0, r8, asr #7
	...
 150:	0000032c 	andeq	r0, r0, ip, lsr #6
 154:	00000334 	andeq	r0, r0, r4, lsr r3
 158:	00000338 	andeq	r0, r0, r8, lsr r3
 15c:	0000033c 	andeq	r0, r0, ip, lsr r3
 160:	00000340 	andeq	r0, r0, r0, asr #6
 164:	0000035c 	andeq	r0, r0, ip, asr r3
	...
 170:	00000334 	andeq	r0, r0, r4, lsr r3
 174:	00000338 	andeq	r0, r0, r8, lsr r3
 178:	000003a4 	andeq	r0, r0, r4, lsr #7
 17c:	000003c4 	andeq	r0, r0, r4, asr #7
	...
 188:	0000042c 	andeq	r0, r0, ip, lsr #8
 18c:	00000510 	andeq	r0, r0, r0, lsl r5
 190:	000006a0 	andeq	r0, r0, r0, lsr #13
 194:	000006a4 	andeq	r0, r0, r4, lsr #13
	...
 1a0:	00000474 	andeq	r0, r0, r4, ror r4
 1a4:	00000484 	andeq	r0, r0, r4, lsl #9
 1a8:	00000488 	andeq	r0, r0, r8, lsl #9
 1ac:	00000510 	andeq	r0, r0, r0, lsl r5
 1b0:	000006a0 	andeq	r0, r0, r0, lsr #13
 1b4:	000006a4 	andeq	r0, r0, r4, lsr #13
	...
 1c0:	00000474 	andeq	r0, r0, r4, ror r4
 1c4:	0000047c 	andeq	r0, r0, ip, ror r4
 1c8:	00000480 	andeq	r0, r0, r0, lsl #9
 1cc:	00000484 	andeq	r0, r0, r4, lsl #9
 1d0:	00000488 	andeq	r0, r0, r8, lsl #9
 1d4:	000004a4 	andeq	r0, r0, r4, lsr #9
	...
 1e0:	0000047c 	andeq	r0, r0, ip, ror r4
 1e4:	00000480 	andeq	r0, r0, r0, lsl #9
 1e8:	000004ec 	andeq	r0, r0, ip, ror #9
 1ec:	00000510 	andeq	r0, r0, r0, lsl r5
	...
 1f8:	0000042c 	andeq	r0, r0, ip, lsr #8
 1fc:	00000510 	andeq	r0, r0, r0, lsl r5
 200:	000006a0 	andeq	r0, r0, r0, lsr #13
 204:	000006f8 	strdeq	r0, [r0], -r8
	...
 210:	0000041c 	andeq	r0, r0, ip, lsl r4
 214:	00000510 	andeq	r0, r0, r0, lsl r5
 218:	000006a0 	andeq	r0, r0, r0, lsr #13
 21c:	000006f8 	strdeq	r0, [r0], -r8
	...
 228:	00000520 	andeq	r0, r0, r0, lsr #10
 22c:	00000580 	andeq	r0, r0, r0, lsl #11
 230:	0000068c 	andeq	r0, r0, ip, lsl #13
 234:	00000694 	muleq	r0, r4, r6
	...
 240:	00000594 	muleq	r0, r4, r5
 244:	00000678 	andeq	r0, r0, r8, ror r6
 248:	000006fc 	strdeq	r0, [r0], -ip
 24c:	00000700 	andeq	r0, r0, r0, lsl #14
	...
 258:	000005dc 	ldrdeq	r0, [r0], -ip
 25c:	000005ec 	andeq	r0, r0, ip, ror #11
 260:	000005f0 	strdeq	r0, [r0], -r0	; <UNPREDICTABLE>
 264:	00000678 	andeq	r0, r0, r8, ror r6
 268:	000006fc 	strdeq	r0, [r0], -ip
 26c:	00000700 	andeq	r0, r0, r0, lsl #14
	...
 278:	000005dc 	ldrdeq	r0, [r0], -ip
 27c:	000005e4 	andeq	r0, r0, r4, ror #11
 280:	000005e8 	andeq	r0, r0, r8, ror #11
 284:	000005ec 	andeq	r0, r0, ip, ror #11
 288:	000005f0 	strdeq	r0, [r0], -r0	; <UNPREDICTABLE>
 28c:	0000060c 	andeq	r0, r0, ip, lsl #12
	...
 298:	000005e4 	andeq	r0, r0, r4, ror #11
 29c:	000005e8 	andeq	r0, r0, r8, ror #11
 2a0:	00000654 	andeq	r0, r0, r4, asr r6
 2a4:	00000678 	andeq	r0, r0, r8, ror r6
	...
 2b0:	00000594 	muleq	r0, r4, r5
 2b4:	00000678 	andeq	r0, r0, r8, ror r6
 2b8:	000006fc 	strdeq	r0, [r0], -ip
 2bc:	00000754 	andeq	r0, r0, r4, asr r7
	...
 2c8:	00000580 	andeq	r0, r0, r0, lsl #11
 2cc:	00000678 	andeq	r0, r0, r8, ror r6
 2d0:	000006fc 	strdeq	r0, [r0], -ip
 2d4:	00000754 	andeq	r0, r0, r4, asr r7
	...
 2e0:	00000038 	andeq	r0, r0, r8, lsr r0
 2e4:	00000048 	andeq	r0, r0, r8, asr #32
 2e8:	0000004c 	andeq	r0, r0, ip, asr #32
 2ec:	0000007c 	andeq	r0, r0, ip, ror r0
	...
